
sfm:     file format elf64-x86-64


Disassembly of section .init:

00000000004018e8 <_init>:
  4018e8:	48 83 ec 08          	sub    $0x8,%rsp
  4018ec:	48 8d 05 dd 13 00 00 	lea    0x13dd(%rip),%rax        # 402cd0 <__gmon_start__>
  4018f3:	48 85 c0             	test   %rax,%rax
  4018f6:	74 05                	je     4018fd <_init+0x15>
  4018f8:	e8 d3 13 00 00       	callq  402cd0 <__gmon_start__>
  4018fd:	48 83 c4 08          	add    $0x8,%rsp
  401901:	c3                   	retq   

Disassembly of section .plt:

0000000000401910 <__cxa_begin_catch@plt-0x10>:
  401910:	ff 35 f2 36 20 00    	pushq  0x2036f2(%rip)        # 605008 <_GLOBAL_OFFSET_TABLE_+0x8>
  401916:	ff 25 f4 36 20 00    	jmpq   *0x2036f4(%rip)        # 605010 <_GLOBAL_OFFSET_TABLE_+0x10>
  40191c:	0f 1f 40 00          	nopl   0x0(%rax)

0000000000401920 <__cxa_begin_catch@plt>:
  401920:	ff 25 f2 36 20 00    	jmpq   *0x2036f2(%rip)        # 605018 <_GLOBAL_OFFSET_TABLE_+0x18>
  401926:	68 00 00 00 00       	pushq  $0x0
  40192b:	e9 e0 ff ff ff       	jmpq   401910 <_init+0x28>

0000000000401930 <_ZNSsC1ERKSs@plt>:
  401930:	ff 25 ea 36 20 00    	jmpq   *0x2036ea(%rip)        # 605020 <_GLOBAL_OFFSET_TABLE_+0x20>
  401936:	68 01 00 00 00       	pushq  $0x1
  40193b:	e9 d0 ff ff ff       	jmpq   401910 <_init+0x28>

0000000000401940 <_ZSt17__throw_bad_allocv@plt>:
  401940:	ff 25 e2 36 20 00    	jmpq   *0x2036e2(%rip)        # 605028 <_GLOBAL_OFFSET_TABLE_+0x28>
  401946:	68 02 00 00 00       	pushq  $0x2
  40194b:	e9 c0 ff ff ff       	jmpq   401910 <_init+0x28>

0000000000401950 <_Znwm@plt>:
  401950:	ff 25 da 36 20 00    	jmpq   *0x2036da(%rip)        # 605030 <_GLOBAL_OFFSET_TABLE_+0x30>
  401956:	68 03 00 00 00       	pushq  $0x3
  40195b:	e9 b0 ff ff ff       	jmpq   401910 <_init+0x28>

0000000000401960 <memmove@plt>:
  401960:	ff 25 d2 36 20 00    	jmpq   *0x2036d2(%rip)        # 605038 <_GLOBAL_OFFSET_TABLE_+0x38>
  401966:	68 04 00 00 00       	pushq  $0x4
  40196b:	e9 a0 ff ff ff       	jmpq   401910 <_init+0x28>

0000000000401970 <_Z19CloudPointsToPointsSt6vectorI10CloudPointSaIS0_EE@plt>:
  401970:	ff 25 ca 36 20 00    	jmpq   *0x2036ca(%rip)        # 605040 <_GLOBAL_OFFSET_TABLE_+0x40>
  401976:	68 05 00 00 00       	pushq  $0x5
  40197b:	e9 90 ff ff ff       	jmpq   401910 <_init+0x28>

0000000000401980 <_ZNSt14basic_ofstreamIcSt11char_traitsIcEEC1Ev@plt>:
  401980:	ff 25 c2 36 20 00    	jmpq   *0x2036c2(%rip)        # 605048 <_GLOBAL_OFFSET_TABLE_+0x48>
  401986:	68 06 00 00 00       	pushq  $0x6
  40198b:	e9 80 ff ff ff       	jmpq   401910 <_init+0x28>

0000000000401990 <_Z13open_imgs_dirPKcRSt6vectorIN2cv3MatESaIS3_EERS1_ISsSaISsEEd@plt>:
  401990:	ff 25 ba 36 20 00    	jmpq   *0x2036ba(%rip)        # 605050 <_GLOBAL_OFFSET_TABLE_+0x50>
  401996:	68 07 00 00 00       	pushq  $0x7
  40199b:	e9 70 ff ff ff       	jmpq   401910 <_init+0x28>

00000000004019a0 <__stack_chk_fail@plt>:
  4019a0:	ff 25 b2 36 20 00    	jmpq   *0x2036b2(%rip)        # 605058 <_GLOBAL_OFFSET_TABLE_+0x58>
  4019a6:	68 08 00 00 00       	pushq  $0x8
  4019ab:	e9 60 ff ff ff       	jmpq   401910 <_init+0x28>

00000000004019b0 <_ZSt16__throw_bad_castv@plt>:
  4019b0:	ff 25 aa 36 20 00    	jmpq   *0x2036aa(%rip)        # 605060 <_GLOBAL_OFFSET_TABLE_+0x60>
  4019b6:	68 09 00 00 00       	pushq  $0x9
  4019bb:	e9 50 ff ff ff       	jmpq   401910 <_init+0x28>

00000000004019c0 <_ZNKSt5ctypeIcE13_M_widen_initEv@plt>:
  4019c0:	ff 25 a2 36 20 00    	jmpq   *0x2036a2(%rip)        # 605068 <_GLOBAL_OFFSET_TABLE_+0x68>
  4019c6:	68 0a 00 00 00       	pushq  $0xa
  4019cb:	e9 40 ff ff ff       	jmpq   401910 <_init+0x28>

00000000004019d0 <_ZNSo5flushEv@plt>:
  4019d0:	ff 25 9a 36 20 00    	jmpq   *0x20369a(%rip)        # 605070 <_GLOBAL_OFFSET_TABLE_+0x70>
  4019d6:	68 0b 00 00 00       	pushq  $0xb
  4019db:	e9 30 ff ff ff       	jmpq   401910 <_init+0x28>

00000000004019e0 <_ZN2cv3Mat10deallocateEv@plt>:
  4019e0:	ff 25 92 36 20 00    	jmpq   *0x203692(%rip)        # 605078 <_GLOBAL_OFFSET_TABLE_+0x78>
  4019e6:	68 0c 00 00 00       	pushq  $0xc
  4019eb:	e9 20 ff ff ff       	jmpq   401910 <_init+0x28>

00000000004019f0 <_ZNSo9_M_insertImEERSoT_@plt>:
  4019f0:	ff 25 8a 36 20 00    	jmpq   *0x20368a(%rip)        # 605080 <_GLOBAL_OFFSET_TABLE_+0x80>
  4019f6:	68 0d 00 00 00       	pushq  $0xd
  4019fb:	e9 10 ff ff ff       	jmpq   401910 <_init+0x28>

0000000000401a00 <_ZdlPv@plt>:
  401a00:	ff 25 82 36 20 00    	jmpq   *0x203682(%rip)        # 605088 <_GLOBAL_OFFSET_TABLE_+0x88>
  401a06:	68 0e 00 00 00       	pushq  $0xe
  401a0b:	e9 00 ff ff ff       	jmpq   401910 <_init+0x28>

0000000000401a10 <_ZNSo3putEc@plt>:
  401a10:	ff 25 7a 36 20 00    	jmpq   *0x20367a(%rip)        # 605090 <_GLOBAL_OFFSET_TABLE_+0x90>
  401a16:	68 0f 00 00 00       	pushq  $0xf
  401a1b:	e9 f0 fe ff ff       	jmpq   401910 <_init+0x28>

0000000000401a20 <_ZN14MultiCameraPnP9setImagesERKSt6vectorIN2cv3MatESaIS2_EERKS0_ISsSaISsEERKSs@plt>:
  401a20:	ff 25 72 36 20 00    	jmpq   *0x203672(%rip)        # 605098 <_GLOBAL_OFFSET_TABLE_+0x98>
  401a26:	68 10 00 00 00       	pushq  $0x10
  401a2b:	e9 e0 fe ff ff       	jmpq   401910 <_init+0x28>

0000000000401a30 <_ZStlsISt11char_traitsIcEERSt13basic_ostreamIcT_ES5_PKc@plt>:
  401a30:	ff 25 6a 36 20 00    	jmpq   *0x20366a(%rip)        # 6050a0 <_GLOBAL_OFFSET_TABLE_+0xa0>
  401a36:	68 11 00 00 00       	pushq  $0x11
  401a3b:	e9 d0 fe ff ff       	jmpq   401910 <_init+0x28>

0000000000401a40 <__gxx_personality_v0@plt>:
  401a40:	ff 25 62 36 20 00    	jmpq   *0x203662(%rip)        # 6050a8 <_GLOBAL_OFFSET_TABLE_+0xa8>
  401a46:	68 12 00 00 00       	pushq  $0x12
  401a4b:	e9 c0 fe ff ff       	jmpq   401910 <_init+0x28>

0000000000401a50 <_Unwind_Resume@plt>:
  401a50:	ff 25 5a 36 20 00    	jmpq   *0x20365a(%rip)        # 6050b0 <_GLOBAL_OFFSET_TABLE_+0xb0>
  401a56:	68 13 00 00 00       	pushq  $0x13
  401a5b:	e9 b0 fe ff ff       	jmpq   401910 <_init+0x28>

0000000000401a60 <_ZNSt8ios_base4InitD1Ev@plt>:
  401a60:	ff 25 52 36 20 00    	jmpq   *0x203652(%rip)        # 6050b8 <_GLOBAL_OFFSET_TABLE_+0xb8>
  401a66:	68 14 00 00 00       	pushq  $0x14
  401a6b:	e9 a0 fe ff ff       	jmpq   401910 <_init+0x28>

0000000000401a70 <_ZN14MultiCameraPnP22RecoverDepthFromImagesEv@plt>:
  401a70:	ff 25 4a 36 20 00    	jmpq   *0x20364a(%rip)        # 6050c0 <_GLOBAL_OFFSET_TABLE_+0xc0>
  401a76:	68 15 00 00 00       	pushq  $0x15
  401a7b:	e9 90 fe ff ff       	jmpq   401910 <_init+0x28>

0000000000401a80 <_ZNSo9_M_insertIdEERSoT_@plt>:
  401a80:	ff 25 42 36 20 00    	jmpq   *0x203642(%rip)        # 6050c8 <_GLOBAL_OFFSET_TABLE_+0xc8>
  401a86:	68 16 00 00 00       	pushq  $0x16
  401a8b:	e9 80 fe ff ff       	jmpq   401910 <_init+0x28>

0000000000401a90 <__cxa_end_catch@plt>:
  401a90:	ff 25 3a 36 20 00    	jmpq   *0x20363a(%rip)        # 6050d0 <_GLOBAL_OFFSET_TABLE_+0xd0>
  401a96:	68 17 00 00 00       	pushq  $0x17
  401a9b:	e9 70 fe ff ff       	jmpq   401910 <_init+0x28>

0000000000401aa0 <_ZNSt14basic_ofstreamIcSt11char_traitsIcEED1Ev@plt>:
  401aa0:	ff 25 32 36 20 00    	jmpq   *0x203632(%rip)        # 6050d8 <_GLOBAL_OFFSET_TABLE_+0xd8>
  401aa6:	68 18 00 00 00       	pushq  $0x18
  401aab:	e9 60 fe ff ff       	jmpq   401910 <_init+0x28>

0000000000401ab0 <_ZNSs4_Rep10_M_disposeERKSaIcE@plt>:
  401ab0:	ff 25 2a 36 20 00    	jmpq   *0x20362a(%rip)        # 6050e0 <_GLOBAL_OFFSET_TABLE_+0xe0>
  401ab6:	68 19 00 00 00       	pushq  $0x19
  401abb:	e9 50 fe ff ff       	jmpq   401910 <_init+0x28>

0000000000401ac0 <__cxa_rethrow@plt>:
  401ac0:	ff 25 22 36 20 00    	jmpq   *0x203622(%rip)        # 6050e8 <_GLOBAL_OFFSET_TABLE_+0xe8>
  401ac6:	68 1a 00 00 00       	pushq  $0x1a
  401acb:	e9 40 fe ff ff       	jmpq   401910 <_init+0x28>

0000000000401ad0 <strcmp@plt>:
  401ad0:	ff 25 1a 36 20 00    	jmpq   *0x20361a(%rip)        # 6050f0 <_GLOBAL_OFFSET_TABLE_+0xf0>
  401ad6:	68 1b 00 00 00       	pushq  $0x1b
  401adb:	e9 30 fe ff ff       	jmpq   401910 <_init+0x28>

0000000000401ae0 <__cxa_atexit@plt>:
  401ae0:	ff 25 12 36 20 00    	jmpq   *0x203612(%rip)        # 6050f8 <_GLOBAL_OFFSET_TABLE_+0xf8>
  401ae6:	68 1c 00 00 00       	pushq  $0x1c
  401aeb:	e9 20 fe ff ff       	jmpq   401910 <_init+0x28>

0000000000401af0 <mcount@plt>:
  401af0:	ff 25 0a 36 20 00    	jmpq   *0x20360a(%rip)        # 605100 <_GLOBAL_OFFSET_TABLE_+0x100>
  401af6:	68 1d 00 00 00       	pushq  $0x1d
  401afb:	e9 10 fe ff ff       	jmpq   401910 <_init+0x28>

0000000000401b00 <_ZN2cv8fastFreeEPv@plt>:
  401b00:	ff 25 02 36 20 00    	jmpq   *0x203602(%rip)        # 605108 <_GLOBAL_OFFSET_TABLE_+0x108>
  401b06:	68 1e 00 00 00       	pushq  $0x1e
  401b0b:	e9 00 fe ff ff       	jmpq   401910 <_init+0x28>

0000000000401b10 <__pthread_key_create@plt>:
  401b10:	ff 25 fa 35 20 00    	jmpq   *0x2035fa(%rip)        # 605110 <_GLOBAL_OFFSET_TABLE_+0x110>
  401b16:	68 1f 00 00 00       	pushq  $0x1f
  401b1b:	e9 f0 fd ff ff       	jmpq   401910 <_init+0x28>

0000000000401b20 <__libc_start_main@plt>:
  401b20:	ff 25 f2 35 20 00    	jmpq   *0x2035f2(%rip)        # 605118 <_GLOBAL_OFFSET_TABLE_+0x118>
  401b26:	68 20 00 00 00       	pushq  $0x20
  401b2b:	e9 e0 fd ff ff       	jmpq   401910 <_init+0x28>

0000000000401b30 <_ZNSs4_Rep10_M_destroyERKSaIcE@plt>:
  401b30:	ff 25 ea 35 20 00    	jmpq   *0x2035ea(%rip)        # 605120 <_GLOBAL_OFFSET_TABLE_+0x120>
  401b36:	68 21 00 00 00       	pushq  $0x21
  401b3b:	e9 d0 fd ff ff       	jmpq   401910 <_init+0x28>

0000000000401b40 <_ZSt16__ostream_insertIcSt11char_traitsIcEERSt13basic_ostreamIT_T0_ES6_PKS3_l@plt>:
  401b40:	ff 25 e2 35 20 00    	jmpq   *0x2035e2(%rip)        # 605128 <_GLOBAL_OFFSET_TABLE_+0x128>
  401b46:	68 22 00 00 00       	pushq  $0x22
  401b4b:	e9 c0 fd ff ff       	jmpq   401910 <_init+0x28>

0000000000401b50 <_ZN14MultiCameraPnP19GetRGBForPointCloudERKSt6vectorI10CloudPointSaIS1_EERS0_IN2cv3VecIhLi3EEESaIS8_EE@plt>:
  401b50:	ff 25 da 35 20 00    	jmpq   *0x2035da(%rip)        # 605130 <_GLOBAL_OFFSET_TABLE_+0x130>
  401b56:	68 23 00 00 00       	pushq  $0x23
  401b5b:	e9 b0 fd ff ff       	jmpq   401910 <_init+0x28>

0000000000401b60 <_ZSt4endlIcSt11char_traitsIcEERSt13basic_ostreamIT_T0_ES6_@plt>:
  401b60:	ff 25 d2 35 20 00    	jmpq   *0x2035d2(%rip)        # 605138 <_GLOBAL_OFFSET_TABLE_+0x138>
  401b66:	68 24 00 00 00       	pushq  $0x24
  401b6b:	e9 a0 fd ff ff       	jmpq   401910 <_init+0x28>

0000000000401b70 <_ZNSt8ios_base4InitC1Ev@plt>:
  401b70:	ff 25 ca 35 20 00    	jmpq   *0x2035ca(%rip)        # 605140 <_GLOBAL_OFFSET_TABLE_+0x140>
  401b76:	68 25 00 00 00       	pushq  $0x25
  401b7b:	e9 90 fd ff ff       	jmpq   401910 <_init+0x28>

0000000000401b80 <_ZNSt14basic_ofstreamIcSt11char_traitsIcEE4openEPKcSt13_Ios_Openmode@plt>:
  401b80:	ff 25 c2 35 20 00    	jmpq   *0x2035c2(%rip)        # 605148 <_GLOBAL_OFFSET_TABLE_+0x148>
  401b86:	68 26 00 00 00       	pushq  $0x26
  401b8b:	e9 80 fd ff ff       	jmpq   401910 <_init+0x28>

0000000000401b90 <__monstartup@plt>:
  401b90:	ff 25 ba 35 20 00    	jmpq   *0x2035ba(%rip)        # 605150 <_GLOBAL_OFFSET_TABLE_+0x150>
  401b96:	68 27 00 00 00       	pushq  $0x27
  401b9b:	e9 70 fd ff ff       	jmpq   401910 <_init+0x28>

0000000000401ba0 <_ZN2cv10fastMallocEm@plt>:
  401ba0:	ff 25 b2 35 20 00    	jmpq   *0x2035b2(%rip)        # 605158 <_GLOBAL_OFFSET_TABLE_+0x158>
  401ba6:	68 28 00 00 00       	pushq  $0x28
  401bab:	e9 60 fd ff ff       	jmpq   401910 <_init+0x28>

0000000000401bb0 <_mcleanup@plt>:
  401bb0:	ff 25 aa 35 20 00    	jmpq   *0x2035aa(%rip)        # 605160 <_GLOBAL_OFFSET_TABLE_+0x160>
  401bb6:	68 29 00 00 00       	pushq  $0x29
  401bbb:	e9 50 fd ff ff       	jmpq   401910 <_init+0x28>

0000000000401bc0 <_ZNSt9basic_iosIcSt11char_traitsIcEE5clearESt12_Ios_Iostate@plt>:
  401bc0:	ff 25 a2 35 20 00    	jmpq   *0x2035a2(%rip)        # 605168 <_GLOBAL_OFFSET_TABLE_+0x168>
  401bc6:	68 2a 00 00 00       	pushq  $0x2a
  401bcb:	e9 40 fd ff ff       	jmpq   401910 <_init+0x28>

0000000000401bd0 <_ZNSsC1EPKcRKSaIcE@plt>:
  401bd0:	ff 25 9a 35 20 00    	jmpq   *0x20359a(%rip)        # 605170 <_GLOBAL_OFFSET_TABLE_+0x170>
  401bd6:	68 2b 00 00 00       	pushq  $0x2b
  401bdb:	e9 30 fd ff ff       	jmpq   401910 <_init+0x28>

0000000000401be0 <strtod@plt>:
  401be0:	ff 25 92 35 20 00    	jmpq   *0x203592(%rip)        # 605178 <_GLOBAL_OFFSET_TABLE_+0x178>
  401be6:	68 2c 00 00 00       	pushq  $0x2c
  401beb:	e9 20 fd ff ff       	jmpq   401910 <_init+0x28>

Disassembly of section .text:

0000000000401bf0 <_ZStlsISt11char_traitsIcEERSt13basic_ostreamIcT_ES5_PKc.part.3>:
  401bf0:	55                   	push   %rbp
  401bf1:	48 89 e5             	mov    %rsp,%rbp
  401bf4:	e8 f7 fe ff ff       	callq  401af0 <mcount@plt>
  401bf9:	48 8b 07             	mov    (%rdi),%rax
  401bfc:	48 03 78 e8          	add    -0x18(%rax),%rdi
  401c00:	8b 77 20             	mov    0x20(%rdi),%esi
  401c03:	83 ce 01             	or     $0x1,%esi
  401c06:	e8 b5 ff ff ff       	callq  401bc0 <_ZNSt9basic_iosIcSt11char_traitsIcEE5clearESt12_Ios_Iostate@plt>
  401c0b:	5d                   	pop    %rbp
  401c0c:	c3                   	retq   
  401c0d:	0f 1f 00             	nopl   (%rax)

0000000000401c10 <main>:
  401c10:	55                   	push   %rbp
  401c11:	48 89 e5             	mov    %rsp,%rbp
  401c14:	41 57                	push   %r15
  401c16:	41 56                	push   %r14
  401c18:	41 55                	push   %r13
  401c1a:	41 54                	push   %r12
  401c1c:	53                   	push   %rbx
  401c1d:	48 81 ec 88 02 00 00 	sub    $0x288,%rsp
  401c24:	e8 c7 fe ff ff       	callq  401af0 <mcount@plt>
  401c29:	64 48 8b 04 25 28 00 	mov    %fs:0x28,%rax
  401c30:	00 00 
  401c32:	48 89 45 c8          	mov    %rax,-0x38(%rbp)
  401c36:	31 c0                	xor    %eax,%eax
  401c38:	83 ff 01             	cmp    $0x1,%edi
  401c3b:	89 bd 68 fd ff ff    	mov    %edi,-0x298(%rbp)
  401c41:	49 89 f7             	mov    %rsi,%r15
  401c44:	0f 8e d2 0c 00 00    	jle    40291c <main+0xd0c>
  401c4a:	83 bd 68 fd ff ff 04 	cmpl   $0x4,-0x298(%rbp)
  401c51:	f2 0f 10 05 cf 25 00 	movsd  0x25cf(%rip),%xmm0        # 404228 <_IO_stdin_used+0x180>
  401c58:	00 
  401c59:	0f 8f f5 0b 00 00    	jg     402854 <main+0xc44>
  401c5f:	49 8b 7f 08          	mov    0x8(%r15),%rdi
  401c63:	ba e0 52 60 00       	mov    $0x6052e0,%edx
  401c68:	be 00 53 60 00       	mov    $0x605300,%esi
  401c6d:	e8 1e fd ff ff       	callq  401990 <_Z13open_imgs_dirPKcRSt6vectorIN2cv3MatESaIS3_EERS1_ISsSaISsEEd@plt>
  401c72:	48 8b 05 8f 36 20 00 	mov    0x20368f(%rip),%rax        # 605308 <images+0x8>
  401c79:	48 2b 05 80 36 20 00 	sub    0x203680(%rip),%rax        # 605300 <images>
  401c80:	48 ba ab aa aa aa aa 	movabs $0xaaaaaaaaaaaaaaab,%rdx
  401c87:	aa aa aa 
  401c8a:	48 c1 f8 05          	sar    $0x5,%rax
  401c8e:	48 0f af c2          	imul   %rdx,%rax
  401c92:	48 85 c0             	test   %rax,%rax
  401c95:	0f 84 ef 0a 00 00    	je     40278a <main+0xb7a>
  401c9b:	49 8b 77 08          	mov    0x8(%r15),%rsi
  401c9f:	48 8d bd a0 fd ff ff 	lea    -0x260(%rbp),%rdi
  401ca6:	48 8d 95 7f fd ff ff 	lea    -0x281(%rbp),%rdx
  401cad:	e8 1e ff ff ff       	callq  401bd0 <_ZNSsC1EPKcRKSaIcE@plt>
  401cb2:	bf 48 04 00 00       	mov    $0x448,%edi
  401cb7:	e8 94 fc ff ff       	callq  401950 <_Znwm@plt>
  401cbc:	4c 8b 35 25 36 20 00 	mov    0x203625(%rip),%r14        # 6052e8 <images_names+0x8>
  401cc3:	4c 8b 2d 16 36 20 00 	mov    0x203616(%rip),%r13        # 6052e0 <images_names>
  401cca:	48 89 c3             	mov    %rax,%rbx
  401ccd:	48 c7 00 00 00 00 00 	movq   $0x0,(%rax)
  401cd4:	48 c7 40 08 00 00 00 	movq   $0x0,0x8(%rax)
  401cdb:	00 
  401cdc:	48 8d 40 50          	lea    0x50(%rax),%rax
  401ce0:	48 c7 40 c0 00 00 00 	movq   $0x0,-0x40(%rax)
  401ce7:	00 
  401ce8:	48 c7 40 c8 00 00 00 	movq   $0x0,-0x38(%rax)
  401cef:	00 
  401cf0:	4d 89 f4             	mov    %r14,%r12
  401cf3:	48 c7 40 d0 00 00 00 	movq   $0x0,-0x30(%rax)
  401cfa:	00 
  401cfb:	48 c7 40 d8 00 00 00 	movq   $0x0,-0x28(%rax)
  401d02:	00 
  401d03:	4d 29 ec             	sub    %r13,%r12
  401d06:	48 c7 40 e0 00 00 00 	movq   $0x0,-0x20(%rax)
  401d0d:	00 
  401d0e:	48 c7 40 e8 00 00 00 	movq   $0x0,-0x18(%rax)
  401d15:	00 
  401d16:	48 c7 40 f0 00 00 00 	movq   $0x0,-0x10(%rax)
  401d1d:	00 
  401d1e:	c7 00 00 00 00 00    	movl   $0x0,(%rax)
  401d24:	49 c1 fc 03          	sar    $0x3,%r12
  401d28:	48 c7 40 08 00 00 00 	movq   $0x0,0x8(%rax)
  401d2f:	00 
  401d30:	48 c7 40 20 00 00 00 	movq   $0x0,0x20(%rax)
  401d37:	00 
  401d38:	4d 85 e4             	test   %r12,%r12
  401d3b:	48 89 43 60          	mov    %rax,0x60(%rbx)
  401d3f:	48 89 43 68          	mov    %rax,0x68(%rbx)
  401d43:	48 c7 43 78 00 00 00 	movq   $0x0,0x78(%rbx)
  401d4a:	00 
  401d4b:	48 c7 83 80 00 00 00 	movq   $0x0,0x80(%rbx)
  401d52:	00 00 00 00 
  401d56:	48 c7 83 88 00 00 00 	movq   $0x0,0x88(%rbx)
  401d5d:	00 00 00 00 
  401d61:	48 c7 83 90 00 00 00 	movq   $0x0,0x90(%rbx)
  401d68:	00 00 00 00 
  401d6c:	48 c7 83 98 00 00 00 	movq   $0x0,0x98(%rbx)
  401d73:	00 00 00 00 
  401d77:	48 c7 83 a0 00 00 00 	movq   $0x0,0xa0(%rbx)
  401d7e:	00 00 00 00 
  401d82:	48 c7 83 a8 00 00 00 	movq   $0x0,0xa8(%rbx)
  401d89:	00 00 00 00 
  401d8d:	48 c7 83 b0 00 00 00 	movq   $0x0,0xb0(%rbx)
  401d94:	00 00 00 00 
  401d98:	48 c7 83 b8 00 00 00 	movq   $0x0,0xb8(%rbx)
  401d9f:	00 00 00 00 
  401da3:	48 c7 85 60 fd ff ff 	movq   $0x0,-0x2a0(%rbp)
  401daa:	00 00 00 00 
  401dae:	0f 85 d3 0a 00 00    	jne    402887 <main+0xc77>
  401db4:	48 8b 85 60 fd ff ff 	mov    -0x2a0(%rbp),%rax
  401dbb:	4d 39 ee             	cmp    %r13,%r14
  401dbe:	48 89 83 a8 00 00 00 	mov    %rax,0xa8(%rbx)
  401dc5:	48 89 c1             	mov    %rax,%rcx
  401dc8:	48 89 83 b0 00 00 00 	mov    %rax,0xb0(%rbx)
  401dcf:	4a 8d 04 e0          	lea    (%rax,%r12,8),%rax
  401dd3:	48 89 83 b8 00 00 00 	mov    %rax,0xb8(%rbx)
  401dda:	74 28                	je     401e04 <main+0x1f4>
  401ddc:	49 89 cc             	mov    %rcx,%r12
  401ddf:	90                   	nop
  401de0:	4d 85 e4             	test   %r12,%r12
  401de3:	74 0b                	je     401df0 <main+0x1e0>
  401de5:	4c 89 ee             	mov    %r13,%rsi
  401de8:	4c 89 e7             	mov    %r12,%rdi
  401deb:	e8 40 fb ff ff       	callq  401930 <_ZNSsC1ERKSs@plt>
  401df0:	49 83 c5 08          	add    $0x8,%r13
  401df4:	49 83 c4 08          	add    $0x8,%r12
  401df8:	4d 39 ee             	cmp    %r13,%r14
  401dfb:	75 e3                	jne    401de0 <main+0x1d0>
  401dfd:	4c 89 a5 60 fd ff ff 	mov    %r12,-0x2a0(%rbp)
  401e04:	48 8b 85 60 fd ff ff 	mov    -0x2a0(%rbp),%rax
  401e0b:	c7 83 c8 00 00 00 00 	movl   $0x0,0xc8(%rbx)
  401e12:	00 00 00 
  401e15:	48 8d 8d a0 fd ff ff 	lea    -0x260(%rbp),%rcx
  401e1c:	48 c7 83 d0 00 00 00 	movq   $0x0,0xd0(%rbx)
  401e23:	00 00 00 00 
  401e27:	48 c7 83 e8 00 00 00 	movq   $0x0,0xe8(%rbx)
  401e2e:	00 00 00 00 
  401e32:	ba e0 52 60 00       	mov    $0x6052e0,%edx
  401e37:	48 c7 83 48 01 00 00 	movq   $0x0,0x148(%rbx)
  401e3e:	00 00 00 00 
  401e42:	48 c7 83 40 01 00 00 	movq   $0x0,0x140(%rbx)
  401e49:	00 00 00 00 
  401e4d:	be 00 53 60 00       	mov    $0x605300,%esi
  401e52:	48 89 83 b0 00 00 00 	mov    %rax,0xb0(%rbx)
  401e59:	48 8d 83 c8 00 00 00 	lea    0xc8(%rbx),%rax
  401e60:	c7 83 f0 00 00 00 00 	movl   $0x42ff0000,0xf0(%rbx)
  401e67:	00 ff 42 
  401e6a:	c7 83 fc 00 00 00 00 	movl   $0x0,0xfc(%rbx)
  401e71:	00 00 00 
  401e74:	c7 83 f8 00 00 00 00 	movl   $0x0,0xf8(%rbx)
  401e7b:	00 00 00 
  401e7e:	48 89 df             	mov    %rbx,%rdi
  401e81:	48 89 83 d8 00 00 00 	mov    %rax,0xd8(%rbx)
  401e88:	48 89 83 e0 00 00 00 	mov    %rax,0xe0(%rbx)
  401e8f:	48 8d 83 f8 00 00 00 	lea    0xf8(%rbx),%rax
  401e96:	c7 83 f4 00 00 00 00 	movl   $0x0,0xf4(%rbx)
  401e9d:	00 00 00 
  401ea0:	48 c7 83 20 01 00 00 	movq   $0x0,0x120(%rbx)
  401ea7:	00 00 00 00 
  401eab:	48 89 83 30 01 00 00 	mov    %rax,0x130(%rbx)
  401eb2:	48 8d 83 40 01 00 00 	lea    0x140(%rbx),%rax
  401eb9:	48 c7 83 18 01 00 00 	movq   $0x0,0x118(%rbx)
  401ec0:	00 00 00 00 
  401ec4:	48 c7 83 10 01 00 00 	movq   $0x0,0x110(%rbx)
  401ecb:	00 00 00 00 
  401ecf:	48 c7 83 00 01 00 00 	movq   $0x0,0x100(%rbx)
  401ed6:	00 00 00 00 
  401eda:	48 89 83 38 01 00 00 	mov    %rax,0x138(%rbx)
  401ee1:	48 8d 83 58 01 00 00 	lea    0x158(%rbx),%rax
  401ee8:	48 c7 83 08 01 00 00 	movq   $0x0,0x108(%rbx)
  401eef:	00 00 00 00 
  401ef3:	48 c7 83 28 01 00 00 	movq   $0x0,0x128(%rbx)
  401efa:	00 00 00 00 
  401efe:	48 c7 83 a8 01 00 00 	movq   $0x0,0x1a8(%rbx)
  401f05:	00 00 00 00 
  401f09:	48 89 83 90 01 00 00 	mov    %rax,0x190(%rbx)
  401f10:	48 8d 83 a0 01 00 00 	lea    0x1a0(%rbx),%rax
  401f17:	48 c7 83 a0 01 00 00 	movq   $0x0,0x1a0(%rbx)
  401f1e:	00 00 00 00 
  401f22:	c7 83 5c 01 00 00 00 	movl   $0x0,0x15c(%rbx)
  401f29:	00 00 00 
  401f2c:	c7 83 58 01 00 00 00 	movl   $0x0,0x158(%rbx)
  401f33:	00 00 00 
  401f36:	48 89 83 98 01 00 00 	mov    %rax,0x198(%rbx)
  401f3d:	48 8d 83 b8 01 00 00 	lea    0x1b8(%rbx),%rax
  401f44:	c7 83 54 01 00 00 00 	movl   $0x0,0x154(%rbx)
  401f4b:	00 00 00 
  401f4e:	48 c7 83 80 01 00 00 	movq   $0x0,0x180(%rbx)
  401f55:	00 00 00 00 
  401f59:	48 c7 83 78 01 00 00 	movq   $0x0,0x178(%rbx)
  401f60:	00 00 00 00 
  401f64:	48 c7 83 70 01 00 00 	movq   $0x0,0x170(%rbx)
  401f6b:	00 00 00 00 
  401f6f:	48 c7 83 60 01 00 00 	movq   $0x0,0x160(%rbx)
  401f76:	00 00 00 00 
  401f7a:	48 c7 83 68 01 00 00 	movq   $0x0,0x168(%rbx)
  401f81:	00 00 00 00 
  401f85:	48 c7 83 88 01 00 00 	movq   $0x0,0x188(%rbx)
  401f8c:	00 00 00 00 
  401f90:	48 89 83 f0 01 00 00 	mov    %rax,0x1f0(%rbx)
  401f97:	48 8d 83 00 02 00 00 	lea    0x200(%rbx),%rax
  401f9e:	c7 83 50 01 00 00 06 	movl   $0x42ff0006,0x150(%rbx)
  401fa5:	00 ff 42 
  401fa8:	48 c7 83 08 02 00 00 	movq   $0x0,0x208(%rbx)
  401faf:	00 00 00 00 
  401fb3:	48 c7 83 00 02 00 00 	movq   $0x0,0x200(%rbx)
  401fba:	00 00 00 00 
  401fbe:	48 89 83 f8 01 00 00 	mov    %rax,0x1f8(%rbx)
  401fc5:	48 8d 83 18 02 00 00 	lea    0x218(%rbx),%rax
  401fcc:	c7 83 b0 01 00 00 00 	movl   $0x42ff0000,0x1b0(%rbx)
  401fd3:	00 ff 42 
  401fd6:	c7 83 bc 01 00 00 00 	movl   $0x0,0x1bc(%rbx)
  401fdd:	00 00 00 
  401fe0:	c7 83 b8 01 00 00 00 	movl   $0x0,0x1b8(%rbx)
  401fe7:	00 00 00 
  401fea:	48 89 83 50 02 00 00 	mov    %rax,0x250(%rbx)
  401ff1:	48 8d 83 60 02 00 00 	lea    0x260(%rbx),%rax
  401ff8:	c7 83 b4 01 00 00 00 	movl   $0x0,0x1b4(%rbx)
  401fff:	00 00 00 
  402002:	48 c7 83 e0 01 00 00 	movq   $0x0,0x1e0(%rbx)
  402009:	00 00 00 00 
  40200d:	48 c7 83 d8 01 00 00 	movq   $0x0,0x1d8(%rbx)
  402014:	00 00 00 00 
  402018:	48 89 83 58 02 00 00 	mov    %rax,0x258(%rbx)
  40201f:	48 8d 83 78 02 00 00 	lea    0x278(%rbx),%rax
  402026:	48 c7 83 d0 01 00 00 	movq   $0x0,0x1d0(%rbx)
  40202d:	00 00 00 00 
  402031:	48 c7 83 c0 01 00 00 	movq   $0x0,0x1c0(%rbx)
  402038:	00 00 00 00 
  40203c:	48 c7 83 c8 01 00 00 	movq   $0x0,0x1c8(%rbx)
  402043:	00 00 00 00 
  402047:	48 89 83 b0 02 00 00 	mov    %rax,0x2b0(%rbx)
  40204e:	48 8d 83 c0 02 00 00 	lea    0x2c0(%rbx),%rax
  402055:	48 c7 83 e8 01 00 00 	movq   $0x0,0x1e8(%rbx)
  40205c:	00 00 00 00 
  402060:	48 c7 83 68 02 00 00 	movq   $0x0,0x268(%rbx)
  402067:	00 00 00 00 
  40206b:	48 c7 83 60 02 00 00 	movq   $0x0,0x260(%rbx)
  402072:	00 00 00 00 
  402076:	48 89 83 b8 02 00 00 	mov    %rax,0x2b8(%rbx)
  40207d:	48 8d 83 d8 02 00 00 	lea    0x2d8(%rbx),%rax
  402084:	c7 83 10 02 00 00 00 	movl   $0x42ff0000,0x210(%rbx)
  40208b:	00 ff 42 
  40208e:	c7 83 1c 02 00 00 00 	movl   $0x0,0x21c(%rbx)
  402095:	00 00 00 
  402098:	c7 83 18 02 00 00 00 	movl   $0x0,0x218(%rbx)
  40209f:	00 00 00 
  4020a2:	c7 83 14 02 00 00 00 	movl   $0x0,0x214(%rbx)
  4020a9:	00 00 00 
  4020ac:	48 c7 83 40 02 00 00 	movq   $0x0,0x240(%rbx)
  4020b3:	00 00 00 00 
  4020b7:	48 c7 83 38 02 00 00 	movq   $0x0,0x238(%rbx)
  4020be:	00 00 00 00 
  4020c2:	48 c7 83 30 02 00 00 	movq   $0x0,0x230(%rbx)
  4020c9:	00 00 00 00 
  4020cd:	48 c7 83 20 02 00 00 	movq   $0x0,0x220(%rbx)
  4020d4:	00 00 00 00 
  4020d8:	48 c7 83 28 02 00 00 	movq   $0x0,0x228(%rbx)
  4020df:	00 00 00 00 
  4020e3:	48 c7 83 48 02 00 00 	movq   $0x0,0x248(%rbx)
  4020ea:	00 00 00 00 
  4020ee:	48 c7 83 c8 02 00 00 	movq   $0x0,0x2c8(%rbx)
  4020f5:	00 00 00 00 
  4020f9:	48 c7 83 c0 02 00 00 	movq   $0x0,0x2c0(%rbx)
  402100:	00 00 00 00 
  402104:	c7 83 70 02 00 00 00 	movl   $0x42ff0000,0x270(%rbx)
  40210b:	00 ff 42 
  40210e:	48 89 83 10 03 00 00 	mov    %rax,0x310(%rbx)
  402115:	48 8d 83 20 03 00 00 	lea    0x320(%rbx),%rax
  40211c:	c7 83 7c 02 00 00 00 	movl   $0x0,0x27c(%rbx)
  402123:	00 00 00 
  402126:	c7 83 78 02 00 00 00 	movl   $0x0,0x278(%rbx)
  40212d:	00 00 00 
  402130:	c7 83 74 02 00 00 00 	movl   $0x0,0x274(%rbx)
  402137:	00 00 00 
  40213a:	48 89 83 18 03 00 00 	mov    %rax,0x318(%rbx)
  402141:	48 8d 83 d8 03 00 00 	lea    0x3d8(%rbx),%rax
  402148:	48 c7 83 a0 02 00 00 	movq   $0x0,0x2a0(%rbx)
  40214f:	00 00 00 00 
  402153:	48 c7 83 98 02 00 00 	movq   $0x0,0x298(%rbx)
  40215a:	00 00 00 00 
  40215e:	48 c7 83 90 02 00 00 	movq   $0x0,0x290(%rbx)
  402165:	00 00 00 00 
  402169:	48 c7 83 80 02 00 00 	movq   $0x0,0x280(%rbx)
  402170:	00 00 00 00 
  402174:	48 c7 83 88 02 00 00 	movq   $0x0,0x288(%rbx)
  40217b:	00 00 00 00 
  40217f:	48 c7 83 a8 02 00 00 	movq   $0x0,0x2a8(%rbx)
  402186:	00 00 00 00 
  40218a:	48 c7 83 28 03 00 00 	movq   $0x0,0x328(%rbx)
  402191:	00 00 00 00 
  402195:	48 c7 83 20 03 00 00 	movq   $0x0,0x320(%rbx)
  40219c:	00 00 00 00 
  4021a0:	c7 83 d0 02 00 00 00 	movl   $0x42ff0000,0x2d0(%rbx)
  4021a7:	00 ff 42 
  4021aa:	c7 83 dc 02 00 00 00 	movl   $0x0,0x2dc(%rbx)
  4021b1:	00 00 00 
  4021b4:	c7 83 d8 02 00 00 00 	movl   $0x0,0x2d8(%rbx)
  4021bb:	00 00 00 
  4021be:	c7 83 d4 02 00 00 00 	movl   $0x0,0x2d4(%rbx)
  4021c5:	00 00 00 
  4021c8:	48 c7 83 00 03 00 00 	movq   $0x0,0x300(%rbx)
  4021cf:	00 00 00 00 
  4021d3:	48 c7 83 f8 02 00 00 	movq   $0x0,0x2f8(%rbx)
  4021da:	00 00 00 00 
  4021de:	48 c7 83 f0 02 00 00 	movq   $0x0,0x2f0(%rbx)
  4021e5:	00 00 00 00 
  4021e9:	48 c7 83 e0 02 00 00 	movq   $0x0,0x2e0(%rbx)
  4021f0:	00 00 00 00 
  4021f4:	48 c7 83 e8 02 00 00 	movq   $0x0,0x2e8(%rbx)
  4021fb:	00 00 00 00 
  4021ff:	48 c7 83 08 03 00 00 	movq   $0x0,0x308(%rbx)
  402206:	00 00 00 00 
  40220a:	48 c7 83 30 03 00 00 	movq   $0x0,0x330(%rbx)
  402211:	00 00 00 00 
  402215:	48 c7 83 38 03 00 00 	movq   $0x0,0x338(%rbx)
  40221c:	00 00 00 00 
  402220:	48 c7 83 40 03 00 00 	movq   $0x0,0x340(%rbx)
  402227:	00 00 00 00 
  40222b:	48 c7 83 48 03 00 00 	movq   $0x0,0x348(%rbx)
  402232:	00 00 00 00 
  402236:	48 c7 83 50 03 00 00 	movq   $0x0,0x350(%rbx)
  40223d:	00 00 00 00 
  402241:	48 c7 83 58 03 00 00 	movq   $0x0,0x358(%rbx)
  402248:	00 00 00 00 
  40224c:	48 c7 83 60 03 00 00 	movq   $0x0,0x360(%rbx)
  402253:	00 00 00 00 
  402257:	48 c7 83 68 03 00 00 	movq   $0x0,0x368(%rbx)
  40225e:	00 00 00 00 
  402262:	48 c7 83 70 03 00 00 	movq   $0x0,0x370(%rbx)
  402269:	00 00 00 00 
  40226d:	48 c7 83 78 03 00 00 	movq   $0x0,0x378(%rbx)
  402274:	00 00 00 00 
  402278:	48 c7 83 80 03 00 00 	movq   $0x0,0x380(%rbx)
  40227f:	00 00 00 00 
  402283:	48 89 83 e8 03 00 00 	mov    %rax,0x3e8(%rbx)
  40228a:	48 89 83 f0 03 00 00 	mov    %rax,0x3f0(%rbx)
  402291:	48 8d 83 08 04 00 00 	lea    0x408(%rbx),%rax
  402298:	c6 83 88 03 00 00 00 	movb   $0x0,0x388(%rbx)
  40229f:	48 c7 83 90 03 00 00 	movq   $0x0,0x390(%rbx)
  4022a6:	00 00 00 00 
  4022aa:	48 c7 83 98 03 00 00 	movq   $0x0,0x398(%rbx)
  4022b1:	00 00 00 00 
  4022b5:	48 c7 83 a0 03 00 00 	movq   $0x0,0x3a0(%rbx)
  4022bc:	00 00 00 00 
  4022c0:	48 c7 83 a8 03 00 00 	movq   $0x0,0x3a8(%rbx)
  4022c7:	00 00 00 00 
  4022cb:	48 c7 83 b0 03 00 00 	movq   $0x0,0x3b0(%rbx)
  4022d2:	00 00 00 00 
  4022d6:	48 c7 83 b8 03 00 00 	movq   $0x0,0x3b8(%rbx)
  4022dd:	00 00 00 00 
  4022e1:	c6 83 c0 03 00 00 01 	movb   $0x1,0x3c0(%rbx)
  4022e8:	c6 83 c1 03 00 00 00 	movb   $0x0,0x3c1(%rbx)
  4022ef:	c7 83 d8 03 00 00 00 	movl   $0x0,0x3d8(%rbx)
  4022f6:	00 00 00 
  4022f9:	48 c7 83 e0 03 00 00 	movq   $0x0,0x3e0(%rbx)
  402300:	00 00 00 00 
  402304:	48 c7 83 f8 03 00 00 	movq   $0x0,0x3f8(%rbx)
  40230b:	00 00 00 00 
  40230f:	c7 83 08 04 00 00 00 	movl   $0x0,0x408(%rbx)
  402316:	00 00 00 
  402319:	48 c7 83 10 04 00 00 	movq   $0x0,0x410(%rbx)
  402320:	00 00 00 00 
  402324:	48 c7 83 28 04 00 00 	movq   $0x0,0x428(%rbx)
  40232b:	00 00 00 00 
  40232f:	48 89 83 18 04 00 00 	mov    %rax,0x418(%rbx)
  402336:	48 89 83 20 04 00 00 	mov    %rax,0x420(%rbx)
  40233d:	48 c7 83 30 04 00 00 	movq   $0x0,0x430(%rbx)
  402344:	00 00 00 00 
  402348:	48 c7 83 38 04 00 00 	movq   $0x0,0x438(%rbx)
  40234f:	00 00 00 00 
  402353:	48 c7 83 40 04 00 00 	movq   $0x0,0x440(%rbx)
  40235a:	00 00 00 00 
  40235e:	e8 bd f6 ff ff       	callq  401a20 <_ZN14MultiCameraPnP9setImagesERKSt6vectorIN2cv3MatESaIS2_EERKS0_ISsSaISsEERKSs@plt>
  402363:	bf 04 00 00 00       	mov    $0x4,%edi
  402368:	48 89 9d 90 fd ff ff 	mov    %rbx,-0x270(%rbp)
  40236f:	e8 2c f8 ff ff       	callq  401ba0 <_ZN2cv10fastMallocEm@plt>
  402374:	48 89 85 98 fd ff ff 	mov    %rax,-0x268(%rbp)
  40237b:	c7 00 01 00 00 00    	movl   $0x1,(%rax)
  402381:	48 8d b5 80 fd ff ff 	lea    -0x280(%rbp),%rsi
  402388:	48 8b 85 a0 fd ff ff 	mov    -0x260(%rbp),%rax
  40238f:	48 8d 78 e8          	lea    -0x18(%rax),%rdi
  402393:	e8 18 f7 ff ff       	callq  401ab0 <_ZNSs4_Rep10_M_disposeERKSaIcE@plt>
  402398:	83 bd 68 fd ff ff 02 	cmpl   $0x2,-0x298(%rbp)
  40239f:	0f 85 bf 04 00 00    	jne    402864 <main+0xc54>
  4023a5:	48 8b bd 90 fd ff ff 	mov    -0x270(%rbp),%rdi
  4023ac:	c6 87 c0 03 00 00 01 	movb   $0x1,0x3c0(%rdi)
  4023b3:	c6 87 c1 03 00 00 00 	movb   $0x0,0x3c1(%rdi)
  4023ba:	e8 b1 f6 ff ff       	callq  401a70 <_ZN14MultiCameraPnP22RecoverDepthFromImagesEv@plt>
  4023bf:	48 8b b5 90 fd ff ff 	mov    -0x270(%rbp),%rsi
  4023c6:	48 8d bd a0 fd ff ff 	lea    -0x260(%rbp),%rdi
  4023cd:	e8 3e 0e 00 00       	callq  403210 <_ZN14MultiCameraPnP13getPointCloudEv>
  4023d2:	48 8b 9d 90 fd ff ff 	mov    -0x270(%rbp),%rbx
  4023d9:	48 b9 ab aa aa aa aa 	movabs $0xaaaaaaaaaaaaaaab,%rcx
  4023e0:	aa aa aa 
  4023e3:	48 8b b3 50 03 00 00 	mov    0x350(%rbx),%rsi
  4023ea:	48 8b 83 48 03 00 00 	mov    0x348(%rbx),%rax
  4023f1:	48 89 f2             	mov    %rsi,%rdx
  4023f4:	48 29 c2             	sub    %rax,%rdx
  4023f7:	48 0f af d1          	imul   %rcx,%rdx
  4023fb:	48 85 d2             	test   %rdx,%rdx
  4023fe:	0f 84 ef 04 00 00    	je     4028f3 <main+0xce3>
  402404:	48 89 f7             	mov    %rsi,%rdi
  402407:	48 ba ab aa aa aa aa 	movabs $0xaaaaaaaaaaaaaaab,%rdx
  40240e:	aa aa aa 
  402411:	48 29 c7             	sub    %rax,%rdi
  402414:	48 0f af d7          	imul   %rdi,%rdx
  402418:	48 85 d2             	test   %rdx,%rdx
  40241b:	0f 85 a0 04 00 00    	jne    4028c1 <main+0xcb1>
  402421:	48 c7 85 50 fd ff ff 	movq   $0x0,-0x2b0(%rbp)
  402428:	00 00 00 00 
  40242c:	48 39 c6             	cmp    %rax,%rsi
  40242f:	48 8b 95 50 fd ff ff 	mov    -0x2b0(%rbp),%rdx
  402436:	74 2d                	je     402465 <main+0x855>
  402438:	0f 1f 84 00 00 00 00 	nopl   0x0(%rax,%rax,1)
  40243f:	00 
  402440:	48 85 d2             	test   %rdx,%rdx
  402443:	74 13                	je     402458 <main+0x848>
  402445:	0f b6 08             	movzbl (%rax),%ecx
  402448:	88 0a                	mov    %cl,(%rdx)
  40244a:	0f b6 48 01          	movzbl 0x1(%rax),%ecx
  40244e:	88 4a 01             	mov    %cl,0x1(%rdx)
  402451:	0f b6 48 02          	movzbl 0x2(%rax),%ecx
  402455:	88 4a 02             	mov    %cl,0x2(%rdx)
  402458:	48 83 c0 03          	add    $0x3,%rax
  40245c:	48 83 c2 03          	add    $0x3,%rdx
  402460:	48 39 f0             	cmp    %rsi,%rax
  402463:	75 db                	jne    402440 <main+0x830>
  402465:	48 8d 95 7f fd ff ff 	lea    -0x281(%rbp),%rdx
  40246c:	48 8d bd 80 fd ff ff 	lea    -0x280(%rbp),%rdi
  402473:	be d7 40 40 00       	mov    $0x4040d7,%esi
  402478:	e8 53 f7 ff ff       	callq  401bd0 <_ZNSsC1EPKcRKSaIcE@plt>
  40247d:	48 8d bd c0 fd ff ff 	lea    -0x240(%rbp),%rdi
  402484:	e8 f7 f4 ff ff       	callq  401980 <_ZNSt14basic_ofstreamIcSt11char_traitsIcEEC1Ev@plt>
  402489:	48 8b b5 80 fd ff ff 	mov    -0x280(%rbp),%rsi
  402490:	48 8d bd c0 fd ff ff 	lea    -0x240(%rbp),%rdi
  402497:	ba 30 00 00 00       	mov    $0x30,%edx
  40249c:	e8 df f6 ff ff       	callq  401b80 <_ZNSt14basic_ofstreamIcSt11char_traitsIcEE4openEPKcSt13_Ios_Openmode@plt>
  4024a1:	48 8d bd c0 fd ff ff 	lea    -0x240(%rbp),%rdi
  4024a8:	be f8 41 40 00       	mov    $0x4041f8,%esi
  4024ad:	e8 7e f5 ff ff       	callq  401a30 <_ZStlsISt11char_traitsIcEERSt13basic_ostreamIcT_ES5_PKc@plt>
  4024b2:	48 89 c7             	mov    %rax,%rdi
  4024b5:	e8 a6 f6 ff ff       	callq  401b60 <_ZSt4endlIcSt11char_traitsIcEERSt13basic_ostreamIT_T0_ES6_@plt>
  4024ba:	48 8d bd c0 fd ff ff 	lea    -0x240(%rbp),%rdi
  4024c1:	be e3 40 40 00       	mov    $0x4040e3,%esi
  4024c6:	e8 65 f5 ff ff       	callq  401a30 <_ZStlsISt11char_traitsIcEERSt13basic_ostreamIcT_ES5_PKc@plt>
  4024cb:	48 89 c7             	mov    %rax,%rdi
  4024ce:	e8 8d f6 ff ff       	callq  401b60 <_ZSt4endlIcSt11char_traitsIcEERSt13basic_ostreamIT_T0_ES6_@plt>
  4024d3:	48 8d bd c0 fd ff ff 	lea    -0x240(%rbp),%rdi
  4024da:	be ef 40 40 00       	mov    $0x4040ef,%esi
  4024df:	e8 4c f5 ff ff       	callq  401a30 <_ZStlsISt11char_traitsIcEERSt13basic_ostreamIcT_ES5_PKc@plt>
  4024e4:	48 89 c7             	mov    %rax,%rdi
  4024e7:	e8 74 f6 ff ff       	callq  401b60 <_ZSt4endlIcSt11char_traitsIcEERSt13basic_ostreamIT_T0_ES6_@plt>
  4024ec:	48 8d bd c0 fd ff ff 	lea    -0x240(%rbp),%rdi
  4024f3:	be 01 41 40 00       	mov    $0x404101,%esi
  4024f8:	e8 33 f5 ff ff       	callq  401a30 <_ZStlsISt11char_traitsIcEERSt13basic_ostreamIcT_ES5_PKc@plt>
  4024fd:	48 89 c7             	mov    %rax,%rdi
  402500:	e8 5b f6 ff ff       	callq  401b60 <_ZSt4endlIcSt11char_traitsIcEERSt13basic_ostreamIT_T0_ES6_@plt>
  402505:	48 8d bd c0 fd ff ff 	lea    -0x240(%rbp),%rdi
  40250c:	be 0e 41 40 00       	mov    $0x40410e,%esi
  402511:	e8 1a f5 ff ff       	callq  401a30 <_ZStlsISt11char_traitsIcEERSt13basic_ostreamIcT_ES5_PKc@plt>
  402516:	48 89 c7             	mov    %rax,%rdi
  402519:	e8 42 f6 ff ff       	callq  401b60 <_ZSt4endlIcSt11char_traitsIcEERSt13basic_ostreamIT_T0_ES6_@plt>
  40251e:	48 8d bd c0 fd ff ff 	lea    -0x240(%rbp),%rdi
  402525:	be 1b 41 40 00       	mov    $0x40411b,%esi
  40252a:	e8 01 f5 ff ff       	callq  401a30 <_ZStlsISt11char_traitsIcEERSt13basic_ostreamIcT_ES5_PKc@plt>
  40252f:	48 89 c7             	mov    %rax,%rdi
  402532:	e8 29 f6 ff ff       	callq  401b60 <_ZSt4endlIcSt11char_traitsIcEERSt13basic_ostreamIT_T0_ES6_@plt>
  402537:	48 8b 9d a8 fd ff ff 	mov    -0x258(%rbp),%rbx
  40253e:	48 2b 9d a0 fd ff ff 	sub    -0x260(%rbp),%rbx
  402545:	48 8d bd c0 fd ff ff 	lea    -0x240(%rbp),%rdi
  40254c:	48 b8 ab aa aa aa aa 	movabs $0xaaaaaaaaaaaaaaab,%rax
  402553:	aa aa aa 
  402556:	be 29 41 40 00       	mov    $0x404129,%esi
  40255b:	48 c1 fb 03          	sar    $0x3,%rbx
  40255f:	48 0f af d8          	imul   %rax,%rbx
  402563:	e8 c8 f4 ff ff       	callq  401a30 <_ZStlsISt11char_traitsIcEERSt13basic_ostreamIcT_ES5_PKc@plt>
  402568:	48 89 de             	mov    %rbx,%rsi
  40256b:	48 89 c7             	mov    %rax,%rdi
  40256e:	e8 7d f4 ff ff       	callq  4019f0 <_ZNSo9_M_insertImEERSoT_@plt>
  402573:	48 89 c7             	mov    %rax,%rdi
  402576:	e8 e5 f5 ff ff       	callq  401b60 <_ZSt4endlIcSt11char_traitsIcEERSt13basic_ostreamIT_T0_ES6_@plt>
  40257b:	48 8d bd c0 fd ff ff 	lea    -0x240(%rbp),%rdi
  402582:	be 30 41 40 00       	mov    $0x404130,%esi
  402587:	e8 a4 f4 ff ff       	callq  401a30 <_ZStlsISt11char_traitsIcEERSt13basic_ostreamIcT_ES5_PKc@plt>
  40258c:	48 89 c7             	mov    %rax,%rdi
  40258f:	e8 cc f5 ff ff       	callq  401b60 <_ZSt4endlIcSt11char_traitsIcEERSt13basic_ostreamIT_T0_ES6_@plt>
  402594:	48 8d bd c0 fd ff ff 	lea    -0x240(%rbp),%rdi
  40259b:	be 39 41 40 00       	mov    $0x404139,%esi
  4025a0:	e8 8b f4 ff ff       	callq  401a30 <_ZStlsISt11char_traitsIcEERSt13basic_ostreamIcT_ES5_PKc@plt>
  4025a5:	48 89 c7             	mov    %rax,%rdi
  4025a8:	e8 b3 f5 ff ff       	callq  401b60 <_ZSt4endlIcSt11char_traitsIcEERSt13basic_ostreamIT_T0_ES6_@plt>
  4025ad:	48 8b 9d a8 fd ff ff 	mov    -0x258(%rbp),%rbx
  4025b4:	48 2b 9d a0 fd ff ff 	sub    -0x260(%rbp),%rbx
  4025bb:	48 8d bd c0 fd ff ff 	lea    -0x240(%rbp),%rdi
  4025c2:	48 b8 ab aa aa aa aa 	movabs $0xaaaaaaaaaaaaaaab,%rax
  4025c9:	aa aa aa 
  4025cc:	be 51 41 40 00       	mov    $0x404151,%esi
  4025d1:	48 c1 fb 03          	sar    $0x3,%rbx
  4025d5:	48 0f af d8          	imul   %rax,%rbx
  4025d9:	e8 52 f4 ff ff       	callq  401a30 <_ZStlsISt11char_traitsIcEERSt13basic_ostreamIcT_ES5_PKc@plt>
  4025de:	48 89 de             	mov    %rbx,%rsi
  4025e1:	48 89 c7             	mov    %rax,%rdi
  4025e4:	e8 07 f4 ff ff       	callq  4019f0 <_ZNSo9_M_insertImEERSoT_@plt>
  4025e9:	48 89 c7             	mov    %rax,%rdi
  4025ec:	e8 6f f5 ff ff       	callq  401b60 <_ZSt4endlIcSt11char_traitsIcEERSt13basic_ostreamIT_T0_ES6_@plt>
  4025f1:	48 8d bd c0 fd ff ff 	lea    -0x240(%rbp),%rdi
  4025f8:	be 59 41 40 00       	mov    $0x404159,%esi
  4025fd:	e8 2e f4 ff ff       	callq  401a30 <_ZStlsISt11char_traitsIcEERSt13basic_ostreamIcT_ES5_PKc@plt>
  402602:	48 89 c7             	mov    %rax,%rdi
  402605:	e8 56 f5 ff ff       	callq  401b60 <_ZSt4endlIcSt11char_traitsIcEERSt13basic_ostreamIT_T0_ES6_@plt>
  40260a:	48 8b 85 a0 fd ff ff 	mov    -0x260(%rbp),%rax
  402611:	48 8b 95 a8 fd ff ff 	mov    -0x258(%rbp),%rdx
  402618:	48 b9 ab aa aa aa aa 	movabs $0xaaaaaaaaaaaaaaab,%rcx
  40261f:	aa aa aa 
  402622:	48 29 c2             	sub    %rax,%rdx
  402625:	48 c1 fa 03          	sar    $0x3,%rdx
  402629:	48 0f af d1          	imul   %rcx,%rdx
  40262d:	48 85 d2             	test   %rdx,%rdx
  402630:	0f 84 95 01 00 00    	je     4027cb <main+0xbbb>
  402636:	4c 8b a5 50 fd ff ff 	mov    -0x2b0(%rbp),%r12
  40263d:	45 31 ed             	xor    %r13d,%r13d
  402640:	45 31 f6             	xor    %r14d,%r14d
  402643:	48 89 8d 58 fd ff ff 	mov    %rcx,-0x2a8(%rbp)
  40264a:	eb 4d                	jmp    402699 <main+0xa89>
  40264c:	0f 1f 40 00          	nopl   0x0(%rax)
  402650:	0f b6 43 43          	movzbl 0x43(%rbx),%eax
  402654:	0f be f0             	movsbl %al,%esi
  402657:	4c 89 ff             	mov    %r15,%rdi
  40265a:	e8 b1 f3 ff ff       	callq  401a10 <_ZNSo3putEc@plt>
  40265f:	48 89 c7             	mov    %rax,%rdi
  402662:	e8 69 f3 ff ff       	callq  4019d0 <_ZNSo5flushEv@plt>
  402667:	48 8b 85 a0 fd ff ff 	mov    -0x260(%rbp),%rax
  40266e:	48 8b 9d a8 fd ff ff 	mov    -0x258(%rbp),%rbx
  402675:	49 83 c6 01          	add    $0x1,%r14
  402679:	49 83 c4 03          	add    $0x3,%r12
  40267d:	49 83 c5 18          	add    $0x18,%r13
  402681:	48 29 c3             	sub    %rax,%rbx
  402684:	48 c1 fb 03          	sar    $0x3,%rbx
  402688:	48 0f af 9d 58 fd ff 	imul   -0x2a8(%rbp),%rbx
  40268f:	ff 
  402690:	49 39 de             	cmp    %rbx,%r14
  402693:	0f 83 34 01 00 00    	jae    4027cd <main+0xbbd>
  402699:	41 0f b6 1c 24       	movzbl (%r12),%ebx
  40269e:	41 0f b6 54 24 01    	movzbl 0x1(%r12),%edx
  4026a4:	4c 01 e8             	add    %r13,%rax
  4026a7:	f2 0f 10 48 10       	movsd  0x10(%rax),%xmm1
  4026ac:	48 8d bd c0 fd ff ff 	lea    -0x240(%rbp),%rdi
  4026b3:	f2 0f 10 50 08       	movsd  0x8(%rax),%xmm2
  4026b8:	f2 0f 10 00          	movsd  (%rax),%xmm0
  4026bc:	c1 e2 08             	shl    $0x8,%edx
  4026bf:	c1 e3 10             	shl    $0x10,%ebx
  4026c2:	f2 0f 11 8d 68 fd ff 	movsd  %xmm1,-0x298(%rbp)
  4026c9:	ff 
  4026ca:	09 d3                	or     %edx,%ebx
  4026cc:	41 0f b6 54 24 02    	movzbl 0x2(%r12),%edx
  4026d2:	f2 0f 11 95 60 fd ff 	movsd  %xmm2,-0x2a0(%rbp)
  4026d9:	ff 
  4026da:	09 d3                	or     %edx,%ebx
  4026dc:	e8 9f f3 ff ff       	callq  401a80 <_ZNSo9_M_insertIdEERSoT_@plt>
  4026e1:	ba 01 00 00 00       	mov    $0x1,%edx
  4026e6:	be b2 40 40 00       	mov    $0x4040b2,%esi
  4026eb:	48 89 c7             	mov    %rax,%rdi
  4026ee:	49 89 c7             	mov    %rax,%r15
  4026f1:	e8 4a f4 ff ff       	callq  401b40 <_ZSt16__ostream_insertIcSt11char_traitsIcEERSt13basic_ostreamIT_T0_ES6_PKS3_l@plt>
  4026f6:	f2 0f 10 85 60 fd ff 	movsd  -0x2a0(%rbp),%xmm0
  4026fd:	ff 
  4026fe:	4c 89 ff             	mov    %r15,%rdi
  402701:	e8 7a f3 ff ff       	callq  401a80 <_ZNSo9_M_insertIdEERSoT_@plt>
  402706:	ba 01 00 00 00       	mov    $0x1,%edx
  40270b:	be b2 40 40 00       	mov    $0x4040b2,%esi
  402710:	48 89 c7             	mov    %rax,%rdi
  402713:	49 89 c7             	mov    %rax,%r15
  402716:	e8 25 f4 ff ff       	callq  401b40 <_ZSt16__ostream_insertIcSt11char_traitsIcEERSt13basic_ostreamIT_T0_ES6_PKS3_l@plt>
  40271b:	f2 0f 10 85 68 fd ff 	movsd  -0x298(%rbp),%xmm0
  402722:	ff 
  402723:	4c 89 ff             	mov    %r15,%rdi
  402726:	e8 55 f3 ff ff       	callq  401a80 <_ZNSo9_M_insertIdEERSoT_@plt>
  40272b:	ba 01 00 00 00       	mov    $0x1,%edx
  402730:	be b2 40 40 00       	mov    $0x4040b2,%esi
  402735:	48 89 c7             	mov    %rax,%rdi
  402738:	49 89 c7             	mov    %rax,%r15
  40273b:	e8 00 f4 ff ff       	callq  401b40 <_ZSt16__ostream_insertIcSt11char_traitsIcEERSt13basic_ostreamIT_T0_ES6_PKS3_l@plt>
  402740:	89 de                	mov    %ebx,%esi
  402742:	4c 89 ff             	mov    %r15,%rdi
  402745:	e8 a6 f2 ff ff       	callq  4019f0 <_ZNSo9_M_insertImEERSoT_@plt>
  40274a:	49 89 c7             	mov    %rax,%r15
  40274d:	48 8b 00             	mov    (%rax),%rax
  402750:	48 8b 40 e8          	mov    -0x18(%rax),%rax
  402754:	49 8b 9c 07 f0 00 00 	mov    0xf0(%r15,%rax,1),%rbx
  40275b:	00 
  40275c:	48 85 db             	test   %rbx,%rbx
  40275f:	0f 84 f0 01 00 00    	je     402955 <main+0xd45>
  402765:	80 7b 38 00          	cmpb   $0x0,0x38(%rbx)
  402769:	0f 85 e1 fe ff ff    	jne    402650 <main+0xa40>
  40276f:	48 89 df             	mov    %rbx,%rdi
  402772:	e8 49 f2 ff ff       	callq  4019c0 <_ZNKSt5ctypeIcE13_M_widen_initEv@plt>
  402777:	48 8b 03             	mov    (%rbx),%rax
  40277a:	be 0a 00 00 00       	mov    $0xa,%esi
  40277f:	48 89 df             	mov    %rbx,%rdi
  402782:	ff 50 30             	callq  *0x30(%rax)
  402785:	e9 ca fe ff ff       	jmpq   402654 <main+0xa44>
  40278a:	be b4 40 40 00       	mov    $0x4040b4,%esi
  40278f:	bf c0 51 60 00       	mov    $0x6051c0,%edi
  402794:	e8 97 f2 ff ff       	callq  401a30 <_ZStlsISt11char_traitsIcEERSt13basic_ostreamIcT_ES5_PKc@plt>
  402799:	48 89 c7             	mov    %rax,%rdi
  40279c:	e8 bf f3 ff ff       	callq  401b60 <_ZSt4endlIcSt11char_traitsIcEERSt13basic_ostreamIT_T0_ES6_@plt>
  4027a1:	b8 01 00 00 00       	mov    $0x1,%eax
  4027a6:	48 8b 4d c8          	mov    -0x38(%rbp),%rcx
  4027aa:	64 48 33 0c 25 28 00 	xor    %fs:0x28,%rcx
  4027b1:	00 00 
  4027b3:	0f 85 c4 02 00 00    	jne    402a7d <main+0xe6d>
  4027b9:	48 81 c4 88 02 00 00 	add    $0x288,%rsp
  4027c0:	5b                   	pop    %rbx
  4027c1:	41 5c                	pop    %r12
  4027c3:	41 5d                	pop    %r13
  4027c5:	41 5e                	pop    %r14
  4027c7:	41 5f                	pop    %r15
  4027c9:	5d                   	pop    %rbp
  4027ca:	c3                   	retq   
  4027cb:	31 db                	xor    %ebx,%ebx
  4027cd:	be 64 41 40 00       	mov    $0x404164,%esi
  4027d2:	bf c0 51 60 00       	mov    $0x6051c0,%edi
  4027d7:	e8 54 f2 ff ff    
     	callq  401a30 <_ZStlsISt11char_traitsIcEERSt13basic_ostreamIcT_ES5_PKc@plt>
  4027dc:	48 89 de             	mov    %rbx,%rsi
  4027df:	48 89 c7             	mov    %rax,%rdi
  4027e2:	e8 09 f2 ff ff       	callq  4019f0 <_ZNSo9_M_insertImEERSoT_@plt>
  4027e7:	be 6b 41 40 00       	mov    $0x40416b,%esi
  4027ec:	48 89 c7             	mov    %rax,%rdi
  4027ef:	e8 3c f2 ff ff       	callq  401a30 <_ZStlsISt11char_traitsIcEERSt13basic_ostreamIcT_ES5_PKc@plt>
  4027f4:	48 89 c7             	mov    %rax,%rdi
  4027f7:	e8 64 f3 ff ff       	callq  401b60 <_ZSt4endlIcSt11char_traitsIcEERSt13basic_ostreamIT_T0_ES6_@plt>
  4027fc:	48 8d bd c0 fd ff ff 	lea    -0x240(%rbp),%rdi
  402803:	e8 98 f2 ff ff       	callq  401aa0 <_ZNSt14basic_ofstreamIcSt11char_traitsIcEED1Ev@plt>
  402808:	48 8b 85 80 fd ff ff 	mov    -0x280(%rbp),%rax
  40280f:	48 8d b5 7f fd ff ff 	lea    -0x281(%rbp),%rsi
  402816:	48 8d 78 e8          	lea    -0x18(%rax),%rdi
  40281a:	e8 91 f2 ff ff       	callq  401ab0 <_ZNSs4_Rep10_M_disposeERKSaIcE@plt>
  40281f:	48 8b bd 50 fd ff ff 	mov    -0x2b0(%rbp),%rdi
  402826:	48 85 ff             	test   %rdi,%rdi
  402829:	74 05                	je     402830 <main+0xc20>
  40282b:	e8 d0 f1 ff ff       	callq  401a00 <_ZdlPv@plt>
  402830:	48 8b bd a0 fd ff ff 	mov    -0x260(%rbp),%rdi
  402837:	48 85 ff             	test   %rdi,%rdi
  40283a:	74 05                	je     402841 <main+0xc31>
  40283c:	e8 bf f1 ff ff       	callq  401a00 <_ZdlPv@plt>
  402841:	48 8d bd 90 fd ff ff 	lea    -0x270(%rbp),%rdi
  402848:	e8 53 17 00 00       	callq  403fa0 <_ZN2cv3PtrI14MultiCameraPnPE7releaseEv>
  40284d:	31 c0                	xor    %eax,%eax
  40284f:	e9 52 ff ff ff       	jmpq   4027a6 <main+0xb96>
  402854:	48 8b 7e 20          	mov    0x20(%rsi),%rdi
  402858:	31 f6                	xor    %esi,%esi
  40285a:	e8 81 f3 ff ff       	callq  401be0 <strtod@plt>
  40285f:	e9 fb f3 ff ff       	jmpq   401c5f <main+0x4f>
  402864:	49 8b 7f 10          	mov    0x10(%r15),%rdi
  402868:	be d2 40 40 00       	mov    $0x4040d2,%esi
  40286d:	e8 5e f2 ff ff       	callq  401ad0 <strcmp@plt>
  402872:	48 8b bd 90 fd ff ff 	mov    -0x270(%rbp),%rdi
  402879:	85 c0                	test   %eax,%eax
  40287b:	0f 94 87 c0 03 00 00 	sete   0x3c0(%rdi)
  402882:	e9 2c fb ff ff       	jmpq   4023b3 <main+0x7a3>
  402887:	48 b8 ff ff ff ff ff 	movabs $0x1fffffffffffffff,%rax
  40288e:	ff ff 1f 
  402891:	49 39 c4             	cmp    %rax,%r12
  402894:	0f 87 99 01 00 00    	ja     402a33 <main+0xe23>
  40289a:	4a 8d 3c e5 00 00 00 	lea    0x0(,%r12,8),%rdi
  4028a1:	00 
  4028a2:	e8 a9 f0 ff ff       	callq  401950 <_Znwm@plt>
  4028a7:	48 89 85 60 fd ff ff 	mov    %rax,-0x2a0(%rbp)
  4028ae:	4c 8b 2d 2b 2a 20 00 	mov    0x202a2b(%rip),%r13        # 6052e0 <images_names>
  4028b5:	4c 8b 35 2c 2a 20 00 	mov    0x202a2c(%rip),%r14        # 6052e8 <images_names+0x8>
  4028bc:	e9 f3 f4 ff ff       	jmpq   401db4 <main+0x1a4>
  4028c1:	48 b8 55 55 55 55 55 	movabs $0x5555555555555555,%rax
  4028c8:	55 55 55 
  4028cb:	48 39 c2             	cmp    %rax,%rdx
  4028ce:	0f 87 0e 01 00 00    	ja     4029e2 <main+0xdd2>
  4028d4:	e8 77 f0 ff ff       	callq  401950 <_Znwm@plt>
  4028d9:	48 89 85 50 fd ff ff 	mov    %rax,-0x2b0(%rbp)
  4028e0:	48 8b b3 50 03 00 00 	mov    0x350(%rbx),%rsi
  4028e7:	48 8b 83 48 03 00 00 	mov    0x348(%rbx),%rax
  4028ee:	e9 39 fb ff ff       	jmpq   40242c <main+0x81c>
  4028f3:	48 8d 93 48 03 00 00 	lea    0x348(%rbx),%rdx
  4028fa:	48 8d b3 30 03 00 00 	lea    0x330(%rbx),%rsi
  402901:	48 89 df             	mov    %rbx,%rdi
  402904:	e8 47 f2 ff ff       	callq  401b50 <_ZN14MultiCameraPnP19GetRGBForPointCloudERKSt6vectorI10CloudPointSaIS1_EERS0_IN2cv3VecIhLi3EEESaIS8_EE@plt>
  402909:	48 8b 83 48 03 00 00 	mov    0x348(%rbx),%rax
  402910:	48 8b b3 50 03 00 00 	mov    0x350(%rbx),%rsi
  402917:	e9 e8 fa ff ff       	jmpq   402404 <main+0x7f4>
  40291c:	48 8b 1e             	mov    (%rsi),%rbx
  40291f:	bf c0 51 60 00       	mov    $0x6051c0,%edi
  402924:	be ac 40 40 00       	mov    $0x4040ac,%esi
  402929:	e8 02 f1 ff ff       	callq  401a30 <_ZStlsISt11char_traitsIcEERSt13basic_ostreamIcT_ES5_PKc@plt>
  40292e:	48 89 c7             	mov    %rax,%rdi
  402931:	48 89 de             	mov    %rbx,%rsi
  402934:	e8 f7 f0 ff ff       	callq  401a30 <_ZStlsISt11char_traitsIcEERSt13basic_ostreamIcT_ES5_PKc@plt>
  402939:	be 88 41 40 00       	mov    $0x404188,%esi
  40293e:	48 89 c7             	mov    %rax,%rdi
  402941:	e8 ea f0 ff ff       	callq  401a30 <_ZStlsISt11char_traitsIcEERSt13basic_ostreamIcT_ES5_PKc@plt>
  402946:	48 89 c7             	mov    %rax,%rdi
  402949:	e8 12 f2 ff ff       	callq  401b60 <_ZSt4endlIcSt11char_traitsIcEERSt13basic_ostreamIT_T0_ES6_@plt>
  40294e:	31 c0                	xor    %eax,%eax
  402950:	e9 51 fe ff ff       	jmpq   4027a6 <main+0xb96>
  402955:	e8 56 f0 ff ff       	callq  4019b0 <_ZSt16__throw_bad_castv@plt>
  40295a:	48 8d bd c0 fd ff ff 	lea    -0x240(%rbp),%rdi
  402961:	48 89 c3             	mov    %rax,%rbx
  402964:	e8 37 f1 ff ff       	callq  401aa0 <_ZNSt14basic_ofstreamIcSt11char_traitsIcEED1Ev@plt>
  402969:	48 8b 85 80 fd ff ff 	mov    -0x280(%rbp),%rax
  402970:	48 8d b5 7f fd ff ff 	lea    -0x281(%rbp),%rsi
  402977:	48 8d 78 e8          	lea    -0x18(%rax),%rdi
  40297b:	e8 30 f1 ff ff       	callq  401ab0 <_ZNSs4_Rep10_M_disposeERKSaIcE@plt>
  402980:	48 8b bd 50 fd ff ff 	mov    -0x2b0(%rbp),%rdi
  402987:	48 85 ff             	test   %rdi,%rdi
  40298a:	74 05                	je     402991 <main+0xd81>
  40298c:	e8 6f f0 ff ff       	callq  401a00 <_ZdlPv@plt>
  402991:	48 8b bd a0 fd ff ff 	mov    -0x260(%rbp),%rdi
  402998:	48 85 ff             	test   %rdi,%rdi
  40299b:	74 05                	je     4029a2 <main+0xd92>
  40299d:	e8 5e f0 ff ff       	callq  401a00 <_ZdlPv@plt>
  4029a2:	48 8d bd 90 fd ff ff 	lea    -0x270(%rbp),%rdi
  4029a9:	e8 f2 15 00 00       	callq  403fa0 <_ZN2cv3PtrI14MultiCameraPnPE7releaseEv>
  4029ae:	48 89 df             	mov    %rbx,%rdi
  4029b1:	e8 9a f0 ff ff       	callq  401a50 <_Unwind_Resume@plt>
  4029b6:	48 89 c3             	mov    %rax,%rbx
  4029b9:	eb d6                	jmp    402991 <main+0xd81>
  4029bb:	48 89 c3             	mov    %rax,%rbx
  4029be:	eb a9                	jmp    402969 <main+0xd59>
  4029c0:	48 89 c3             	mov    %rax,%rbx
  4029c3:	48 8b 85 a0 fd ff ff 	mov    -0x260(%rbp),%rax
  4029ca:	48 8d b5 80 fd ff ff 	lea    -0x280(%rbp),%rsi
  4029d1:	48 8d 78 e8          	lea    -0x18(%rax),%rdi
  4029d5:	e8 d6 f0 ff ff       	callq  401ab0 <_ZNSs4_Rep10_M_disposeERKSaIcE@plt>
  4029da:	48 89 df             	mov    %rbx,%rdi
  4029dd:	e8 6e f0 ff ff       	callq  401a50 <_Unwind_Resume@plt>
  4029e2:	e8 59 ef ff ff       	callq  401940 <_ZSt17__throw_bad_allocv@plt>
  4029e7:	49 89 c4             	mov    %rax,%r12
  4029ea:	48 8d bb 90 00 00 00 	lea    0x90(%rbx),%rdi
  4029f1:	e8 7a 04 00 00       	callq  402e70 <_ZNSt6vectorIN2cv3MatESaIS1_EED1Ev>
  4029f6:	48 8d 7b 78          	lea    0x78(%rbx),%rdi
  4029fa:	e8 81 06 00 00       	callq  403080 <_ZNSt6vectorIN2cv4Mat_INS0_3VecIhLi3EEEEESaIS4_EED1Ev>
  4029ff:	48 8b 73 58          	mov    0x58(%rbx),%rsi
  402a03:	48 8d 7b 48          	lea    0x48(%rbx),%rdi
  402a07:	e8 e4 0a 00 00       	callq  4034f0 <_ZNSt8_Rb_treeISt4pairIiiES0_IKS1_St6vectorIN2cv6DMatchESaIS5_EEESt10_Select1stIS8_ESt4lessIS1_ESaIS8_EE8_M_eraseEPSt13_Rb_tree_nodeIS8_E>
  402a0c:	48 8d 7b 30          	lea    0x30(%rbx),%rdi
  402a10:	e8 fb 05 00 00       	callq  403010 <_ZNSt6vectorIS_IN2cv8KeyPointESaIS1_EESaIS3_EED1Ev>
  402a15:	48 8d 7b 18          	lea    0x18(%rbx),%rdi
  402a19:	e8 f2 05 00 00       	callq  403010 <_ZNSt6vectorIS_IN2cv8KeyPointESaIS1_EESaIS3_EED1Ev>
  402a1e:	48 89 df             	mov    %rbx,%rdi
  402a21:	e8 ea 05 00 00       	callq  403010 <_ZNSt6vectorIS_IN2cv8KeyPointESaIS1_EESaIS3_EED1Ev>
  402a26:	48 89 df             	mov    %rbx,%rdi
  402a29:	4c 89 e3             	mov    %r12,%rbx
  402a2c:	e8 cf ef ff ff       	callq  401a00 <_ZdlPv@plt>
  402a31:	eb 90                	jmp    4029c3 <main+0xdb3>
  402a33:	e8 08 ef ff ff       	callq  401940 <_ZSt17__throw_bad_allocv@plt>
  402a38:	48 89 c7             	mov    %rax,%rdi
  402a3b:	0f 1f 44 00 00       	nopl   0x0(%rax,%rax,1)
  402a40:	e8 db ee ff ff       	callq  401920 <__cxa_begin_catch@plt>
  402a45:	4c 39 a5 60 fd ff ff 	cmp    %r12,-0x2a0(%rbp)
  402a4c:	0f 84 63 01 00 00    	je     402bb5 <main+0xfa5>
  402a52:	48 8b 85 60 fd ff ff 	mov    -0x2a0(%rbp),%rax
  402a59:	48 8d b5 90 fd ff ff 	lea    -0x270(%rbp),%rsi
  402a60:	48 8b 00             	mov    (%rax),%rax
  402a63:	48 8d 78 e8          	lea    -0x18(%rax),%rdi
  402a67:	48 89 85 68 fd ff ff 	mov    %rax,-0x298(%rbp)
  402a6e:	e8 3d f0 ff ff       	callq  401ab0 <_ZNSs4_Rep10_M_disposeERKSaIcE@plt>
  402a73:	48 83 85 60 fd ff ff 	addq   $0x8,-0x2a0(%rbp)
  402a7a:	08 
  402a7b:	eb c8                	jmp    402a45 <main+0xe35>
  402a7d:	e8 1e ef ff ff       	callq  4019a0 <__stack_chk_fail@plt>
  402a82:	48 89 c3             	mov    %rax,%rbx
  402a85:	e9 18 ff ff ff       	jmpq   4029a2 <main+0xd92>
  402a8a:	48 89 c3             	mov    %rax,%rbx
  402a8d:	e9 ee fe ff ff       	jmpq   402980 <main+0xd70>
  402a92:	48 8b bb 30 04 00 00 	mov    0x430(%rbx),%rdi
  402a99:	49 89 c4             	mov    %rax,%r12
  402a9c:	48 85 ff             	test   %rdi,%rdi
  402a9f:	74 05                	je     402aa6 <main+0xe96>
  402aa1:	e8 5a ef ff ff       	callq  401a00 <_ZdlPv@plt>
  402aa6:	48 8b b3 10 04 00 00 	mov    0x410(%rbx),%rsi
  402aad:	48 8d bb 00 04 00 00 	lea    0x400(%rbx),%rdi
  402ab4:	e8 e7 0a 00 00       	callq  4035a0 <_ZNSt8_Rb_treeIiiSt9_IdentityIiESt4lessIiESaIiEE8_M_eraseEPSt13_Rb_tree_nodeIiE>
  402ab9:	48 8b b3 e0 03 00 00 	mov    0x3e0(%rbx),%rsi
  402ac0:	48 8d bb d0 03 00 00 	lea    0x3d0(%rbx),%rdi
  402ac7:	e8 d4 0a 00 00       	callq  4035a0 <_ZNSt8_Rb_treeIiiSt9_IdentityIiESt4lessIiESaIiEE8_M_eraseEPSt13_Rb_tree_nodeIiE>
  402acc:	48 8b bb a8 03 00 00 	mov    0x3a8(%rbx),%rdi
  402ad3:	48 85 ff             	test   %rdi,%rdi
  402ad6:	74 05                	je     402add <main+0xecd>
  402ad8:	e8 23 ef ff ff       	callq  401a00 <_ZdlPv@plt>
  402add:	48 8d bb 90 03 00 00 	lea    0x390(%rbx),%rdi
  402ae4:	e8 97 06 00 00       	callq  403180 <_ZNSt6vectorI10CloudPointSaIS0_EED1Ev>
  402ae9:	48 8b 93 80 03 00 00 	mov    0x380(%rbx),%rdx
  402af0:	48 85 d2             	test   %rdx,%rdx
  402af3:	74 10                	je     402b05 <main+0xef5>
  402af5:	83 c8 ff             	or     $0xffffffff,%eax
  402af8:	f0 0f c1 02          	lock xadd %eax,(%rdx)
  402afc:	83 e8 01             	sub    $0x1,%eax
  402aff:	0f 84 b5 00 00 00    	je     402bba <main+0xfaa>
  402b05:	48 8b bb 60 03 00 00 	mov    0x360(%rbx),%rdi
  402b0c:	48 c7 83 80 03 00 00 	movq   $0x0,0x380(%rbx)
  402b13:	00 00 00 00 
  402b17:	48 c7 83 78 03 00 00 	movq   $0x0,0x378(%rbx)
  402b1e:	00 00 00 00 
  402b22:	48 85 ff             	test   %rdi,%rdi
  402b25:	74 05                	je     402b2c <main+0xf1c>
  402b27:	e8 d4 ee ff ff       	callq  401a00 <_ZdlPv@plt>
  402b2c:	48 8b bb 48 03 00 00 	mov    0x348(%rbx),%rdi
  402b33:	48 85 ff             	test   %rdi,%rdi
  402b36:	74 05                	je     402b3d <main+0xf2d>
  402b38:	e8 c3 ee ff ff       	callq  401a00 <_ZdlPv@plt>
  402b3d:	48 8d bb 30 03 00 00 	lea    0x330(%rbx),%rdi
  402b44:	e8 37 06 00 00       	callq  403180 <_ZNSt6vectorI10CloudPointSaIS0_EED1Ev>
  402b49:	48 8d bb d0 02 00 00 	lea    0x2d0(%rbx),%rdi
  402b50:	e8 1b 04 00 00       	callq  402f70 <_ZN2cv3MatD1Ev>
  402b55:	48 8d bb 70 02 00 00 	lea    0x270(%rbx),%rdi
  402b5c:	e8 0f 04 00 00       	callq  402f70 <_ZN2cv3MatD1Ev>
  402b61:	48 8d bb 10 02 00 00 	lea    0x210(%rbx),%rdi
  402b68:	e8 03 04 00 00       	callq  402f70 <_ZN2cv3MatD1Ev>
  402b6d:	48 8d bb b0 01 00 00 	lea    0x1b0(%rbx),%rdi
  402b74:	e8 f7 03 00 00       	callq  402f70 <_ZN2cv3MatD1Ev>
  402b79:	48 8d bb 50 01 00 00 	lea    0x150(%rbx),%rdi
  402b80:	e8 eb 03 00 00       	callq  402f70 <_ZN2cv3MatD1Ev>
  402b85:	48 8d bb f0 00 00 00 	lea    0xf0(%rbx),%rdi
  402b8c:	e8 df 03 00 00       	callq  402f70 <_ZN2cv3MatD1Ev>
  402b91:	48 8b b3 d0 00 00 00 	mov    0xd0(%rbx),%rsi
  402b98:	48 8d bb c0 00 00 00 	lea    0xc0(%rbx),%rdi
  402b9f:	e8 ac 09 00 00       	callq  403550 <_ZNSt8_Rb_treeIiSt4pairIKiN2cv4MatxIdLi3ELi4EEEESt10_Select1stIS5_ESt4lessIiESaIS5_EE8_M_eraseEPSt13_Rb_tree_nodeIS5_E>
  402ba4:	48 8d bb a8 00 00 00 	lea    0xa8(%rbx),%rdi
  402bab:	e8 20 02 00 00       	callq  402dd0 <_ZNSt6vectorISsSaISsEED1Ev>
  402bb0:	e9 35 fe ff ff       	jmpq   4029ea <main+0xdda>
  402bb5:	e8 06 ef ff ff       	callq  401ac0 <__cxa_rethrow@plt>
  402bba:	48 8b bb 78 03 00 00 	mov    0x378(%rbx),%rdi
  402bc1:	48 85 ff             	test   %rdi,%rdi
  402bc4:	74 05                	je     402bcb <main+0xfbb>
  402bc6:	e8 35 ee ff ff       	callq  401a00 <_ZdlPv@plt>
  402bcb:	48 8b bb 80 03 00 00 	mov    0x380(%rbx),%rdi
  402bd2:	e8 29 ef ff ff       	callq  401b00 <_ZN2cv8fastFreeEPv@plt>
  402bd7:	e9 29 ff ff ff       	jmpq   402b05 <main+0xef5>
  402bdc:	49 89 c4             	mov    %rax,%r12
  402bdf:	e8 ac ee ff ff       	callq  401a90 <__cxa_end_catch@plt>
  402be4:	48 8b bb a8 00 00 00 	mov    0xa8(%rbx),%rdi
  402beb:	48 85 ff             	test   %rdi,%rdi
  402bee:	0f 84 f6 fd ff ff    	je     4029ea <main+0xdda>
  402bf4:	e8 07 ee ff ff       	callq  401a00 <_ZdlPv@plt>
  402bf9:	e9 ec fd ff ff       	jmpq   4029ea <main+0xdda>
  402bfe:	66 90                	xchg   %ax,%ax

0000000000402c00 <_GLOBAL__sub_I_images>:
  402c00:	55                   	push   %rbp
  402c01:	48 89 e5             	mov    %rsp,%rbp
  402c04:	e8 e7 ee ff ff       	callq  401af0 <mcount@plt>
  402c09:	bf 18 53 60 00       	mov    $0x605318,%edi
  402c0e:	e8 5d ef ff ff       	callq  401b70 <_ZNSt8ios_base4InitC1Ev@plt>
  402c13:	ba 88 51 60 00       	mov    $0x605188,%edx
  402c18:	be 18 53 60 00       	mov    $0x605318,%esi
  402c1d:	bf 60 1a 40 00       	mov    $0x401a60,%edi
  402c22:	e8 b9 ee ff ff       	callq  401ae0 <__cxa_atexit@plt>
  402c27:	ba 88 51 60 00       	mov    $0x605188,%edx
  402c2c:	be 00 53 60 00       	mov    $0x605300,%esi
  402c31:	bf 70 2e 40 00       	mov    $0x402e70,%edi
  402c36:	48 c7 05 bf 26 20 00 	movq   $0x0,0x2026bf(%rip)        # 605300 <images>
  402c3d:	00 00 00 00 
  402c41:	48 c7 05 bc 26 20 00 	movq   $0x0,0x2026bc(%rip)        # 605308 <images+0x8>
  402c48:	00 00 00 00 
  402c4c:	48 c7 05 b9 26 20 00 	movq   $0x0,0x2026b9(%rip)        # 605310 <images+0x10>
  402c53:	00 00 00 00 
  402c57:	e8 84 ee ff ff       	callq  401ae0 <__cxa_atexit@plt>
  402c5c:	5d                   	pop    %rbp
  402c5d:	ba 88 51 60 00       	mov    $0x605188,%edx
  402c62:	be e0 52 60 00       	mov    $0x6052e0,%esi
  402c67:	bf d0 2d 40 00       	mov    $0x402dd0,%edi
  402c6c:	48 c7 05 69 26 20 00 	movq   $0x0,0x202669(%rip)        # 6052e0 <images_names>
  402c73:	00 00 00 00 
  402c77:	48 c7 05 66 26 20 00 	movq   $0x0,0x202666(%rip)        # 6052e8 <images_names+0x8>
  402c7e:	00 00 00 00 
  402c82:	48 c7 05 63 26 20 00 	movq   $0x0,0x202663(%rip)        # 6052f0 <images_names+0x10>
  402c89:	00 00 00 00 
  402c8d:	e9 4e ee ff ff       	jmpq   401ae0 <__cxa_atexit@plt>
  402c92:	66 2e 0f 1f 84 00 00 	nopw   %cs:0x0(%rax,%rax,1)
  402c99:	00 00 00 
  402c9c:	0f 1f 40 00          	nopl   0x0(%rax)

0000000000402ca0 <_start>:
  402ca0:	31 ed                	xor    %ebp,%ebp
  402ca2:	49 89 d1             	mov    %rdx,%r9
  402ca5:	5e                   	pop    %rsi
  402ca6:	48 89 e2             	mov    %rsp,%rdx
  402ca9:	48 83 e4 f0          	and    $0xfffffffffffffff0,%rsp
  402cad:	50                   	push   %rax
  402cae:	54                   	push   %rsp
  402caf:	49 c7 c0 70 40 40 00 	mov    $0x404070,%r8
  402cb6:	48 c7 c1 00 40 40 00 	mov    $0x404000,%rcx
  402cbd:	48 c7 c7 10 1c 40 00 	mov    $0x401c10,%rdi
  402cc4:	e8 57 ee ff ff       	callq  401b20 <__libc_start_main@plt>
  402cc9:	f4                   	hlt    
  402cca:	66 0f 1f 44 00 00    	nopw   0x0(%rax,%rax,1)

0000000000402cd0 <__gmon_start__>:
  402cd0:	8b 05 fa 25 20 00    	mov    0x2025fa(%rip),%eax        # 6052d0 <called.4237>
  402cd6:	85 c0                	test   %eax,%eax
  402cd8:	74 06                	je     402ce0 <__gmon_start__+0x10>
  402cda:	f3 c3                	repz retq 
  402cdc:	0f 1f 40 00          	nopl   0x0(%rax)
  402ce0:	48 83 ec 08          	sub    $0x8,%rsp
  402ce4:	bf a0 2c 40 00       	mov    $0x402ca0,%edi
  402ce9:	be a5 40 40 00       	mov    $0x4040a5,%esi
  402cee:	c7 05 d8 25 20 00 01 	movl   $0x1,0x2025d8(%rip)        # 6052d0 <called.4237>
  402cf5:	00 00 00 
  402cf8:	e8 93 ee ff ff       	callq  401b90 <__monstartup@plt>
  402cfd:	bf b0 1b 40 00       	mov    $0x401bb0,%edi
  402d02:	48 83 c4 08          	add    $0x8,%rsp
  402d06:	e9 75 13 00 00       	jmpq   404080 <atexit>
  402d0b:	0f 1f 44 00 00       	nopl   0x0(%rax,%rax,1)

0000000000402d10 <deregister_tm_clones>:
  402d10:	b8 97 51 60 00       	mov    $0x605197,%eax
  402d15:	55                   	push   %rbp
  402d16:	48 2d 90 51 60 00    	sub    $0x605190,%rax
  402d1c:	48 83 f8 0e          	cmp    $0xe,%rax
  402d20:	48 89 e5             	mov    %rsp,%rbp
  402d23:	77 02                	ja     402d27 <deregister_tm_clones+0x17>
  402d25:	5d                   	pop    %rbp
  402d26:	c3                   	retq   
  402d27:	b8 00 00 00 00       	mov    $0x0,%eax
  402d2c:	48 85 c0             	test   %rax,%rax
  402d2f:	74 f4                	je     402d25 <deregister_tm_clones+0x15>
  402d31:	5d                   	pop    %rbp
  402d32:	bf 90 51 60 00       	mov    $0x605190,%edi
  402d37:	ff e0                	jmpq   *%rax
  402d39:	0f 1f 80 00 00 00 00 	nopl   0x0(%rax)

0000000000402d40 <register_tm_clones>:
  402d40:	b8 90 51 60 00       	mov    $0x605190,%eax
  402d45:	55                   	push   %rbp
  402d46:	48 2d 90 51 60 00    	sub    $0x605190,%rax
  402d4c:	48 c1 f8 03          	sar    $0x3,%rax
  402d50:	48 89 e5             	mov    %rsp,%rbp
  402d53:	48 89 c2             	mov    %rax,%rdx
  402d56:	48 c1 ea 3f          	shr    $0x3f,%rdx
  402d5a:	48 01 d0             	add    %rdx,%rax
  402d5d:	48 d1 f8             	sar    %rax
  402d60:	75 02                	jne    402d64 <register_tm_clones+0x24>
  402d62:	5d                   	pop    %rbp
  402d63:	c3                   	retq   
  402d64:	ba 00 00 00 00       	mov    $0x0,%edx
  402d69:	48 85 d2             	test   %rdx,%rdx
  402d6c:	74 f4                	je     402d62 <register_tm_clones+0x22>
  402d6e:	5d                   	pop    %rbp
  402d6f:	48 89 c6             	mov    %rax,%rsi
  402d72:	bf 90 51 60 00       	mov    $0x605190,%edi
  402d77:	ff e2                	jmpq   *%rdx
  402d79:	0f 1f 80 00 00 00 00 	nopl   0x0(%rax)

0000000000402d80 <__do_global_dtors_aux>:
  402d80:	80 3d 4d 25 20 00 00 	cmpb   $0x0,0x20254d(%rip)        # 6052d4 <completed.6972>
  402d87:	75 11                	jne    402d9a <__do_global_dtors_aux+0x1a>
  402d89:	55                   	push   %rbp
  402d8a:	48 89 e5             	mov    %rsp,%rbp
  402d8d:	e8 7e ff ff ff       	callq  402d10 <deregister_tm_clones>
  402d92:	5d                   	pop    %rbp
  402d93:	c6 05 3a 25 20 00 01 	movb   $0x1,0x20253a(%rip)        # 6052d4 <completed.6972>
  402d9a:	f3 c3                	repz retq 
  402d9c:	0f 1f 40 00          	nopl   0x0(%rax)

0000000000402da0 <frame_dummy>:
  402da0:	48 83 3d 30 20 20 00 	cmpq   $0x0,0x202030(%rip)        # 604dd8 <__JCR_END__>
  402da7:	00 
  402da8:	74 1e                	je     402dc8 <frame_dummy+0x28>
  402daa:	b8 00 00 00 00       	mov    $0x0,%eax
  402daf:	48 85 c0             	test   %rax,%rax
  402db2:	74 14                	je     402dc8 <frame_dummy+0x28>
  402db4:	55                   	push   %rbp
  402db5:	bf d8 4d 60 00       	mov    $0x604dd8,%edi
  402dba:	48 89 e5             	mov    %rsp,%rbp
  402dbd:	ff d0                	callq  *%rax
  402dbf:	5d                   	pop    %rbp
  402dc0:	e9 7b ff ff ff       	jmpq   402d40 <register_tm_clones>
  402dc5:	0f 1f 00             	nopl   (%rax)
  402dc8:	e9 73 ff ff ff       	jmpq   402d40 <register_tm_clones>
  402dcd:	0f 1f 00             	nopl   (%rax)

0000000000402dd0 <_ZNSt6vectorISsSaISsEED1Ev>:
  402dd0:	55                   	push   %rbp
  402dd1:	48 89 e5             	mov    %rsp,%rbp
  402dd4:	41 55                	push   %r13
  402dd6:	41 54                	push   %r12
  402dd8:	53                   	push   %rbx
  402dd9:	48 83 ec 18          	sub    $0x18,%rsp
  402ddd:	e8 0e ed ff ff       	callq  401af0 <mcount@plt>
  402de2:	4c 8b 67 08          	mov    0x8(%rdi),%r12
  402de6:	48 8b 1f             	mov    (%rdi),%rbx
  402de9:	49 89 fd             	mov    %rdi,%r13
  402dec:	49 39 dc             	cmp    %rbx,%r12
  402def:	74 39                	je     402e2a <_ZNSt6vectorISsSaISsEED1Ev+0x5a>
  402df1:	0f 1f 80 00 00 00 00 	nopl   0x0(%rax)
  402df8:	48 8b 13             	mov    (%rbx),%rdx
  402dfb:	48 8d 7a e8          	lea    -0x18(%rdx),%rdi
  402dff:	48 81 ff a0 51 60 00 	cmp    $0x6051a0,%rdi
  402e06:	75 27                	jne    402e2f <_ZNSt6vectorISsSaISsEED1Ev+0x5f>
  402e08:	48 83 c3 08          	add    $0x8,%rbx
  402e0c:	49 39 dc             	cmp    %rbx,%r12
  402e0f:	75 e7                	jne    402df8 <_ZNSt6vectorISsSaISsEED1Ev+0x28>
  402e11:	49 8b 7d 00          	mov    0x0(%r13),%rdi
  402e15:	48 85 ff             	test   %rdi,%rdi
  402e18:	74 05                	je     402e1f <_ZNSt6vectorISsSaISsEED1Ev+0x4f>
  402e1a:	e8 e1 eb ff ff       	callq  401a00 <_ZdlPv@plt>
  402e1f:	48 83 c4 18          	add    $0x18,%rsp
  402e23:	5b                   	pop    %rbx
  402e24:	41 5c                	pop    %r12
  402e26:	41 5d                	pop    %r13
  402e28:	5d                   	pop    %rbp
  402e29:	c3                   	retq   
  402e2a:	4c 89 e7             	mov    %r12,%rdi
  402e2d:	eb e6                	jmp    402e15 <_ZNSt6vectorISsSaISsEED1Ev+0x45>
  402e2f:	be 10 1b 40 00       	mov    $0x401b10,%esi
  402e34:	48 8d 4f 10          	lea    0x10(%rdi),%rcx
  402e38:	48 85 f6             	test   %rsi,%rsi
  402e3b:	74 18                	je     402e55 <_ZNSt6vectorISsSaISsEED1Ev+0x85>
  402e3d:	ba ff ff ff ff       	mov    $0xffffffff,%edx
  402e42:	f0 0f c1 11          	lock xadd %edx,(%rcx)
  402e46:	85 d2                	test   %edx,%edx
  402e48:	7f be                	jg     402e08 <_ZNSt6vectorISsSaISsEED1Ev+0x38>
  402e4a:	48 8d 75 df          	lea    -0x21(%rbp),%rsi
  402e4e:	e8 dd ec ff ff       	callq  401b30 <_ZNSs4_Rep10_M_destroyERKSaIcE@plt>
  402e53:	eb b3                	jmp    402e08 <_ZNSt6vectorISsSaISsEED1Ev+0x38>
  402e55:	8b 4a f8             	mov    -0x8(%rdx),%ecx
  402e58:	8d 71 ff             	lea    -0x1(%rcx),%esi
  402e5b:	89 72 f8             	mov    %esi,-0x8(%rdx)
  402e5e:	89 ca                	mov    %ecx,%edx
  402e60:	eb e4                	jmp    402e46 <_ZNSt6vectorISsSaISsEED1Ev+0x76>
  402e62:	66 2e 0f 1f 84 00 00 	nopw   %cs:0x0(%rax,%rax,1)
  402e69:	00 00 00 
  402e6c:	0f 1f 40 00          	nopl   0x0(%rax)

0000000000402e70 <_ZNSt6vectorIN2cv3MatESaIS1_EED1Ev>:
  402e70:	55                   	push   %rbp
  402e71:	48 89 e5             	mov    %rsp,%rbp
  402e74:	41 55                	push   %r13
  402e76:	41 54                	push   %r12
  402e78:	53                   	push   %rbx
  402e79:	48 83 ec 08          	sub    $0x8,%rsp
  402e7d:	e8 6e ec ff ff       	callq  401af0 <mcount@plt>
  402e82:	4c 8b 67 08          	mov    0x8(%rdi),%r12
  402e86:	48 8b 1f             	mov    (%rdi),%rbx
  402e89:	49 89 fd             	mov    %rdi,%r13
  402e8c:	49 39 dc             	cmp    %rbx,%r12
  402e8f:	0f 84 b3 00 00 00    	je     402f48 <_ZNSt6vectorIN2cv3MatESaIS1_EED1Ev+0xd8>
  402e95:	0f 1f 00             	nopl   (%rax)
  402e98:	48 8b 43 18          	mov    0x18(%rbx),%rax
  402e9c:	48 85 c0             	test   %rax,%rax
  402e9f:	74 0a                	je     402eab <_ZNSt6vectorIN2cv3MatESaIS1_EED1Ev+0x3b>
  402ea1:	f0 83 28 01          	lock subl $0x1,(%rax)
  402ea5:	0f 84 85 00 00 00    	je     402f30 <_ZNSt6vectorIN2cv3MatESaIS1_EED1Ev+0xc0>
  402eab:	8b 43 04             	mov    0x4(%rbx),%eax
  402eae:	48 c7 43 30 00 00 00 	movq   $0x0,0x30(%rbx)
  402eb5:	00 
  402eb6:	48 c7 43 28 00 00 00 	movq   $0x0,0x28(%rbx)
  402ebd:	00 
  402ebe:	48 c7 43 20 00 00 00 	movq   $0x0,0x20(%rbx)
  402ec5:	00 
  402ec6:	48 c7 43 10 00 00 00 	movq   $0x0,0x10(%rbx)
  402ecd:	00 
  402ece:	85 c0                	test   %eax,%eax
  402ed0:	7e 20                	jle    402ef2 <_ZNSt6vectorIN2cv3MatESaIS1_EED1Ev+0x82>
  402ed2:	48 8b 53 40          	mov    0x40(%rbx),%rdx
  402ed6:	31 c0                	xor    %eax,%eax
  402ed8:	0f 1f 84 00 00 00 00 	nopl   0x0(%rax,%rax,1)
  402edf:	00 
  402ee0:	c7 02 00 00 00 00    	movl   $0x0,(%rdx)
  402ee6:	83 c0 01             	add    $0x1,%eax
  402ee9:	48 83 c2 04          	add    $0x4,%rdx
  402eed:	3b 43 04             	cmp    0x4(%rbx),%eax
  402ef0:	7c ee                	jl     402ee0 <_ZNSt6vectorIN2cv3MatESaIS1_EED1Ev+0x70>
  402ef2:	48 8b 7b 48          	mov    0x48(%rbx),%rdi
  402ef6:	48 8d 43 50          	lea    0x50(%rbx),%rax
  402efa:	48 c7 43 18 00 00 00 	movq   $0x0,0x18(%rbx)
  402f01:	00 
  402f02:	48 39 c7             	cmp    %rax,%rdi
  402f05:	74 05                	je     402f0c <_ZNSt6vectorIN2cv3MatESaIS1_EED1Ev+0x9c>
  402f07:	e8 f4 eb ff ff       	callq  401b00 <_ZN2cv8fastFreeEPv@plt>
  402f0c:	48 83 c3 60          	add    $0x60,%rbx
  402f10:	49 39 dc             	cmp    %rbx,%r12
  402f13:	75 83                	jne    402e98 <_ZNSt6vectorIN2cv3MatESaIS1_EED1Ev+0x28>
  402f15:	49 8b 7d 00          	mov    0x0(%r13),%rdi
  402f19:	48 85 ff             	test   %rdi,%rdi
  402f1c:	74 1f                	je     402f3d <_ZNSt6vectorIN2cv3MatESaIS1_EED1Ev+0xcd>
  402f1e:	48 83 c4 08          	add    $0x8,%rsp
  402f22:	5b                   	pop    %rbx
  402f23:	41 5c                	pop    %r12
  402f25:	41 5d                	pop    %r13
  402f27:	5d                   	pop    %rbp
  402f28:	e9 d3 ea ff ff       	jmpq   401a00 <_ZdlPv@plt>
  402f2d:	0f 1f 00             	nopl   (%rax)
  402f30:	48 89 df             	mov    %rbx,%rdi
  402f33:	e8 a8 ea ff ff       	callq  4019e0 <_ZN2cv3Mat10deallocateEv@plt>
  402f38:	e9 6e ff ff ff       	jmpq   402eab <_ZNSt6vectorIN2cv3MatESaIS1_EED1Ev+0x3b>
  402f3d:	48 83 c4 08          	add    $0x8,%rsp
  402f41:	5b                   	pop    %rbx
  402f42:	41 5c                	pop    %r12
  402f44:	41 5d                	pop    %r13
  402f46:	5d                   	pop    %rbp
  402f47:	c3                   	retq   
  402f48:	4c 89 e7             	mov    %r12,%rdi
  402f4b:	eb cc                	jmp    402f19 <_ZNSt6vectorIN2cv3MatESaIS1_EED1Ev+0xa9>
  402f4d:	49 8b 7d 00          	mov    0x0(%r13),%rdi
  402f51:	48 89 c3             	mov    %rax,%rbx
  402f54:	48 85 ff             	test   %rdi,%rdi
  402f57:	74 05                	je     402f5e <_ZNSt6vectorIN2cv3MatESaIS1_EED1Ev+0xee>
  402f59:	e8 a2 ea ff ff       	callq  401a00 <_ZdlPv@plt>
  402f5e:	48 89 df             	mov    %rbx,%rdi
  402f61:	e8 ea ea ff ff       	callq  401a50 <_Unwind_Resume@plt>
  402f66:	66 2e 0f 1f 84 00 00 	nopw   %cs:0x0(%rax,%rax,1)
  402f6d:	00 00 00 

0000000000402f70 <_ZN2cv3MatD1Ev>:
  402f70:	55                   	push   %rbp
  402f71:	48 89 e5             	mov    %rsp,%rbp
  402f74:	53                   	push   %rbx
  402f75:	48 83 ec 08          	sub    $0x8,%rsp
  402f79:	e8 72 eb ff ff       	callq  401af0 <mcount@plt>
  402f7e:	48 8b 47 18          	mov    0x18(%rdi),%rax
  402f82:	48 89 fb             	mov    %rdi,%rbx
  402f85:	48 85 c0             	test   %rax,%rax
  402f88:	74 06                	je     402f90 <_ZN2cv3MatD1Ev+0x20>
  402f8a:	f0 83 28 01          	lock subl $0x1,(%rax)
  402f8e:	74 70                	je     403000 <_ZN2cv3MatD1Ev+0x90>
  402f90:	8b 43 04             	mov    0x4(%rbx),%eax
  402f93:	48 c7 43 30 00 00 00 	movq   $0x0,0x30(%rbx)
  402f9a:	00 
  402f9b:	48 c7 43 28 00 00 00 	movq   $0x0,0x28(%rbx)
  402fa2:	00 
  402fa3:	48 c7 43 20 00 00 00 	movq   $0x0,0x20(%rbx)
  402faa:	00 
  402fab:	48 c7 43 10 00 00 00 	movq   $0x0,0x10(%rbx)
  402fb2:	00 
  402fb3:	85 c0                	test   %eax,%eax
  402fb5:	7e 1b                	jle    402fd2 <_ZN2cv3MatD1Ev+0x62>
  402fb7:	48 8b 53 40          	mov    0x40(%rbx),%rdx
  402fbb:	31 c0                	xor    %eax,%eax
  402fbd:	0f 1f 00             	nopl   (%rax)
  402fc0:	c7 02 00 00 00 00    	movl   $0x0,(%rdx)
  402fc6:	83 c0 01             	add    $0x1,%eax
  402fc9:	48 83 c2 04          	add    $0x4,%rdx
  402fcd:	3b 43 04             	cmp    0x4(%rbx),%eax
  402fd0:	7c ee                	jl     402fc0 <_ZN2cv3MatD1Ev+0x50>
  402fd2:	48 8b 7b 48          	mov    0x48(%rbx),%rdi
  402fd6:	48 c7 43 18 00 00 00 	movq   $0x0,0x18(%rbx)
  402fdd:	00 
  402fde:	48 83 c3 50          	add    $0x50,%rbx
  402fe2:	48 39 df             	cmp    %rbx,%rdi
  402fe5:	74 11                	je     402ff8 <_ZN2cv3MatD1Ev+0x88>
  402fe7:	48 83 c4 08          	add    $0x8,%rsp
  402feb:	5b                   	pop    %rbx
  402fec:	5d                   	pop    %rbp
  402fed:	e9 0e eb ff ff       	jmpq   401b00 <_ZN2cv8fastFreeEPv@plt>
  402ff2:	66 0f 1f 44 00 00    	nopw   0x0(%rax,%rax,1)
  402ff8:	48 83 c4 08          	add    $0x8,%rsp
  402ffc:	5b                   	pop    %rbx
  402ffd:	5d                   	pop    %rbp
  402ffe:	c3                   	retq   
  402fff:	90                   	nop
  403000:	e8 db e9 ff ff       	callq  4019e0 <_ZN2cv3Mat10deallocateEv@plt>
  403005:	eb 89                	jmp    402f90 <_ZN2cv3MatD1Ev+0x20>
  403007:	66 0f 1f 84 00 00 00 	nopw   0x0(%rax,%rax,1)
  40300e:	00 00 

0000000000403010 <_ZNSt6vectorIS_IN2cv8KeyPointESaIS1_EESaIS3_EED1Ev>:
  403010:	55                   	push   %rbp
  403011:	48 89 e5             	mov    %rsp,%rbp
  403014:	41 55                	push   %r13
  403016:	41 54                	push   %r12
  403018:	53                   	push   %rbx
  403019:	48 83 ec 08          	sub    $0x8,%rsp
  40301d:	e8 ce ea ff ff       	callq  401af0 <mcount@plt>
  403022:	4c 8b 67 08          	mov    0x8(%rdi),%r12
  403026:	48 8b 1f             	mov    (%rdi),%rbx
  403029:	49 89 fd             	mov    %rdi,%r13
  40302c:	49 39 dc             	cmp    %rbx,%r12
  40302f:	74 4a                	je     40307b <_ZNSt6vectorIS_IN2cv8KeyPointESaIS1_EESaIS3_EED1Ev+0x6b>
  403031:	0f 1f 80 00 00 00 00 	nopl   0x0(%rax)
  403038:	48 8b 3b             	mov    (%rbx),%rdi
  40303b:	48 85 ff             	test   %rdi,%rdi
  40303e:	74 05                	je     403045 <_ZNSt6vectorIS_IN2cv8KeyPointESaIS1_EESaIS3_EED1Ev+0x35>
  403040:	e8 bb e9 ff ff       	callq  401a00 <_ZdlPv@plt>
  403045:	48 83 c3 18          	add    $0x18,%rbx
  403049:	49 39 dc             	cmp    %rbx,%r12
  40304c:	75 ea                	jne    403038 <_ZNSt6vectorIS_IN2cv8KeyPointESaIS1_EESaIS3_EED1Ev+0x28>
  40304e:	49 8b 7d 00          	mov    0x0(%r13),%rdi
  403052:	48 85 ff             	test   %rdi,%rdi
  403055:	74 19                	je     403070 <_ZNSt6vectorIS_IN2cv8KeyPointESaIS1_EESaIS3_EED1Ev+0x60>
  403057:	48 83 c4 08          	add    $0x8,%rsp
  40305b:	5b                   	pop    %rbx
  40305c:	41 5c                	pop    %r12
  40305e:	41 5d                	pop    %r13
  403060:	5d                   	pop    %rbp
  403061:	e9 9a e9 ff ff       	jmpq   401a00 <_ZdlPv@plt>
  403066:	66 2e 0f 1f 84 00 00 	nopw   %cs:0x0(%rax,%rax,1)
  40306d:	00 00 00 
  403070:	48 83 c4 08          	add    $0x8,%rsp
  403074:	5b                   	pop    %rbx
  403075:	41 5c                	pop    %r12
  403077:	41 5d                	pop    %r13
  403079:	5d                   	pop    %rbp
  40307a:	c3                   	retq   
  40307b:	4c 89 e7             	mov    %r12,%rdi
  40307e:	eb d2                	jmp    403052 <_ZNSt6vectorIS_IN2cv8KeyPointESaIS1_EESaIS3_EED1Ev+0x42>

0000000000403080 <_ZNSt6vectorIN2cv4Mat_INS0_3VecIhLi3EEEEESaIS4_EED1Ev>:
  403080:	55                   	push   %rbp
  403081:	48 89 e5             	mov    %rsp,%rbp
  403084:	41 55                	push   %r13
  403086:	41 54                	push   %r12
  403088:	53                   	push   %rbx
  403089:	48 83 ec 08          	sub    $0x8,%rsp
  40308d:	e8 5e ea ff ff       	callq  401af0 <mcount@plt>
  403092:	4c 8b 67 08          	mov    0x8(%rdi),%r12
  403096:	48 8b 1f             	mov    (%rdi),%rbx
  403099:	49 89 fd             	mov    %rdi,%r13
  40309c:	49 39 dc             	cmp    %rbx,%r12
  40309f:	0f 84 b3 00 00 00    	je     403158 <_ZNSt6vectorIN2cv4Mat_INS0_3VecIhLi3EEEEESaIS4_EED1Ev+0xd8>
  4030a5:	0f 1f 00             	nopl   (%rax)
  4030a8:	48 8b 43 18          	mov    0x18(%rbx),%rax
  4030ac:	48 85 c0             	test   %rax,%rax
  4030af:	74 0a                	je     4030bb <_ZNSt6vectorIN2cv4Mat_INS0_3VecIhLi3EEEEESaIS4_EED1Ev+0x3b>
  4030b1:	f0 83 28 01          	lock subl $0x1,(%rax)
  4030b5:	0f 84 85 00 00 00    	je     403140 <_ZNSt6vectorIN2cv4Mat_INS0_3VecIhLi3EEEEESaIS4_EED1Ev+0xc0>
  4030bb:	8b 43 04             	mov    0x4(%rbx),%eax
  4030be:	48 c7 43 30 00 00 00 	movq   $0x0,0x30(%rbx)
  4030c5:	00 
  4030c6:	48 c7 43 28 00 00 00 	movq   $0x0,0x28(%rbx)
  4030cd:	00 
  4030ce:	48 c7 43 20 00 00 00 	movq   $0x0,0x20(%rbx)
  4030d5:	00 
  4030d6:	48 c7 43 10 00 00 00 	movq   $0x0,0x10(%rbx)
  4030dd:	00 
  4030de:	85 c0                	test   %eax,%eax
  4030e0:	7e 20                	jle    403102 <_ZNSt6vectorIN2cv4Mat_INS0_3VecIhLi3EEEEESaIS4_EED1Ev+0x82>
  4030e2:	48 8b 53 40          	mov    0x40(%rbx),%rdx
  4030e6:	31 c0                	xor    %eax,%eax
  4030e8:	0f 1f 84 00 00 00 00 	nopl   0x0(%rax,%rax,1)
  4030ef:	00 
  4030f0:	c7 02 00 00 00 00    	movl   $0x0,(%rdx)
  4030f6:	83 c0 01             	add    $0x1,%eax
  4030f9:	48 83 c2 04          	add    $0x4,%rdx
  4030fd:	3b 43 04             	cmp    0x4(%rbx),%eax
  403100:	7c ee                	jl     4030f0 <_ZNSt6vectorIN2cv4Mat_INS0_3VecIhLi3EEEEESaIS4_EED1Ev+0x70>
  403102:	48 8b 7b 48          	mov    0x48(%rbx),%rdi
  403106:	48 8d 43 50          	lea    0x50(%rbx),%rax
  40310a:	48 c7 43 18 00 00 00 	movq   $0x0,0x18(%rbx)
  403111:	00 
  403112:	48 39 c7             	cmp    %rax,%rdi
  403115:	74 05                	je     40311c <_ZNSt6vectorIN2cv4Mat_INS0_3VecIhLi3EEEEESaIS4_EED1Ev+0x9c>
  403117:	e8 e4 e9 ff ff       	callq  401b00 <_ZN2cv8fastFreeEPv@plt>
  40311c:	48 83 c3 60          	add    $0x60,%rbx
  403120:	49 39 dc             	cmp    %rbx,%r12
  403123:	75 83                	jne    4030a8 <_ZNSt6vectorIN2cv4Mat_INS0_3VecIhLi3EEEEESaIS4_EED1Ev+0x28>
  403125:	49 8b 7d 00          	mov    0x0(%r13),%rdi
  403129:	48 85 ff             	test   %rdi,%rdi
  40312c:	74 1f                	je     40314d <_ZNSt6vectorIN2cv4Mat_INS0_3VecIhLi3EEEEESaIS4_EED1Ev+0xcd>
  40312e:	48 83 c4 08          	add    $0x8,%rsp
  403132:	5b                   	pop    %rbx
  403133:	41 5c                	pop    %r12
  403135:	41 5d                	pop    %r13
  403137:	5d                   	pop    %rbp
  403138:	e9 c3 e8 ff ff       	jmpq   401a00 <_ZdlPv@plt>
  40313d:	0f 1f 00             	nopl   (%rax)
  403140:	48 89 df             	mov    %rbx,%rdi
  403143:	e8 98 e8 ff ff       	callq  4019e0 <_ZN2cv3Mat10deallocateEv@plt>
  403148:	e9 6e ff ff ff       	jmpq   4030bb <_ZNSt6vectorIN2cv4Mat_INS0_3VecIhLi3EEEEESaIS4_EED1Ev+0x3b>
  40314d:	48 83 c4 08          	add    $0x8,%rsp
  403151:	5b                   	pop    %rbx
  403152:	41 5c                	pop    %r12
  403154:	41 5d                	pop    %r13
  403156:	5d                   	pop    %rbp
  403157:	c3                   	retq   
  403158:	4c 89 e7             	mov    %r12,%rdi
  40315b:	eb cc                	jmp    403129 <_ZNSt6vectorIN2cv4Mat_INS0_3VecIhLi3EEEEESaIS4_EED1Ev+0xa9>
  40315d:	49 8b 7d 00          	mov    0x0(%r13),%rdi
  403161:	48 89 c3             	mov    %rax,%rbx
  403164:	48 85 ff             	test   %rdi,%rdi
  403167:	74 05                	je     40316e <_ZNSt6vectorIN2cv4Mat_INS0_3VecIhLi3EEEEESaIS4_EED1Ev+0xee>
  403169:	e8 92 e8 ff ff       	callq  401a00 <_ZdlPv@plt>
  40316e:	48 89 df             	mov    %rbx,%rdi
  403171:	e8 da e8 ff ff       	callq  401a50 <_Unwind_Resume@plt>
  403176:	66 2e 0f 1f 84 00 00 	nopw   %cs:0x0(%rax,%rax,1)
  40317d:	00 00 00 

0000000000403180 <_ZNSt6vectorI10CloudPointSaIS0_EED1Ev>:
  403180:	55                   	push   %rbp
  403181:	48 89 e5             	mov    %rsp,%rbp
  403184:	41 57                	push   %r15
  403186:	41 56                	push   %r14
  403188:	41 55                	push   %r13
  40318a:	41 54                	push   %r12
  40318c:	53                   	push   %rbx
  40318d:	48 83 ec 08          	sub    $0x8,%rsp
  403191:	e8 5a e9 ff ff       	callq  401af0 <mcount@plt>
  403196:	4c 8b 6f 08          	mov    0x8(%rdi),%r13
  40319a:	4c 8b 27             	mov    (%rdi),%r12
  40319d:	49 89 ff             	mov    %rdi,%r15
  4031a0:	4d 39 e5             	cmp    %r12,%r13
  4031a3:	74 5a                	je     4031ff <_ZNSt6vectorI10CloudPointSaIS0_EED1Ev+0x7f>
  4031a5:	4d 8d 74 24 18       	lea    0x18(%r12),%r14
  4031aa:	4c 89 e3             	mov    %r12,%rbx
  4031ad:	0f 1f 00             	nopl   (%rax)
  4031b0:	48 89 d8             	mov    %rbx,%rax
  4031b3:	4c 29 e0             	sub    %r12,%rax
  4031b6:	49 8b 3c 06          	mov    (%r14,%rax,1),%rdi
  4031ba:	48 85 ff             	test   %rdi,%rdi
  4031bd:	74 05                	je     4031c4 <_ZNSt6vectorI10CloudPointSaIS0_EED1Ev+0x44>
  4031bf:	e8 3c e8 ff ff       	callq  401a00 <_ZdlPv@plt>
  4031c4:	48 83 c3 38          	add    $0x38,%rbx
  4031c8:	49 39 dd             	cmp    %rbx,%r13
  4031cb:	75 e3                	jne    4031b0 <_ZNSt6vectorI10CloudPointSaIS0_EED1Ev+0x30>
  4031cd:	49 8b 3f             	mov    (%r15),%rdi
  4031d0:	48 85 ff             	test   %rdi,%rdi
  4031d3:	74 1b                	je     4031f0 <_ZNSt6vectorI10CloudPointSaIS0_EED1Ev+0x70>
  4031d5:	48 83 c4 08          	add    $0x8,%rsp
  4031d9:	5b                   	pop    %rbx
  4031da:	41 5c                	pop    %r12
  4031dc:	41 5d                	pop    %r13
  4031de:	41 5e                	pop    %r14
  4031e0:	41 5f                	pop    %r15
  4031e2:	5d                   	pop    %rbp
  4031e3:	e9 18 e8 ff ff       	jmpq   401a00 <_ZdlPv@plt>
  4031e8:	0f 1f 84 00 00 00 00 	nopl   0x0(%rax,%rax,1)
  4031ef:	00 
  4031f0:	48 83 c4 08          	add    $0x8,%rsp
  4031f4:	5b                   	pop    %rbx
  4031f5:	41 5c                	pop    %r12
  4031f7:	41 5d                	pop    %r13
  4031f9:	41 5e                	pop    %r14
  4031fb:	41 5f                	pop    %r15
  4031fd:	5d                   	pop    %rbp
  4031fe:	c3                   	retq   
  4031ff:	4c 89 ef             	mov    %r13,%rdi
  403202:	eb cc                	jmp    4031d0 <_ZNSt6vectorI10CloudPointSaIS0_EED1Ev+0x50>
  403204:	66 2e 0f 1f 84 00 00 	nopw   %cs:0x0(%rax,%rax,1)
  40320b:	00 00 00 
  40320e:	66 90                	xchg   %ax,%ax

0000000000403210 <_ZN14MultiCameraPnP13getPointCloudEv>:
  403210:	55                   	push   %rbp
  403211:	48 89 e5             	mov    %rsp,%rbp
  403214:	41 57                	push   %r15
  403216:	41 56                	push   %r14
  403218:	41 55                	push   %r13
  40321a:	41 54                	push   %r12
  40321c:	53                   	push   %rbx
  40321d:	48 83 ec 48          	sub    $0x48,%rsp
  403221:	e8 ca e8 ff ff       	callq  401af0 <mcount@plt>
  403226:	48 8b 96 38 03 00 00 	mov    0x338(%rsi),%rdx
  40322d:	48 8b 9e 30 03 00 00 	mov    0x330(%rsi),%rbx
  403234:	48 b9 b7 6d db b6 6d 	movabs $0x6db6db6db6db6db7,%rcx
  40323b:	db b6 6d 
  40323e:	48 89 7d 90          	mov    %rdi,-0x70(%rbp)
  403242:	49 89 f5             	mov    %rsi,%r13
  403245:	48 c7 45 b0 00 00 00 	movq   $0x0,-0x50(%rbp)
  40324c:	00 
  40324d:	48 c7 45 b8 00 00 00 	movq   $0x0,-0x48(%rbp)
  403254:	00 
  403255:	48 c7 45 c0 00 00 00 	movq   $0x0,-0x40(%rbp)
  40325c:	00 
  40325d:	48 89 d0             	mov    %rdx,%rax
  403260:	48 29 d8             	sub    %rbx,%rax
  403263:	48 c1 f8 03          	sar    $0x3,%rax
  403267:	48 0f af c1          	imul   %rcx,%rax
  40326b:	48 85 c0             	test   %rax,%rax
  40326e:	0f 85 bc 01 00 00    	jne    403430 <_ZN14MultiCameraPnP13getPointCloudEv+0x220>
  403274:	48 89 55 a8          	mov    %rdx,-0x58(%rbp)
  403278:	45 31 e4             	xor    %r12d,%r12d
  40327b:	48 c7 45 a0 00 00 00 	movq   $0x0,-0x60(%rbp)
  403282:	00 
  403283:	48 8b 45 a0          	mov    -0x60(%rbp),%rax
  403287:	49 01 c4             	add    %rax,%r12
  40328a:	48 39 5d a8          	cmp    %rbx,-0x58(%rbp)
  40328e:	48 89 45 b0          	mov    %rax,-0x50(%rbp)
  403292:	48 89 45 b8          	mov    %rax,-0x48(%rbp)
  403296:	4c 89 65 c0          	mov    %r12,-0x40(%rbp)
  40329a:	0f 84 11 01 00 00    	je     4033b1 <_ZN14MultiCameraPnP13getPointCloudEv+0x1a1>
  4032a0:	48 8d 50 18          	lea    0x18(%rax),%rdx
  4032a4:	49 89 c4             	mov    %rax,%r12
  4032a7:	49 89 d5             	mov    %rdx,%r13
  4032aa:	48 89 55 98          	mov    %rdx,-0x68(%rbp)
  4032ae:	49 89 d6             	mov    %rdx,%r14
  4032b1:	eb 79                	jmp    40332c <_ZN14MultiCameraPnP13getPointCloudEv+0x11c>
  4032b3:	0f 1f 44 00 00       	nopl   0x0(%rax,%rax,1)
  4032b8:	4d 01 c7             	add    %r8,%r15
  4032bb:	4d 89 06             	mov    %r8,(%r14)
  4032be:	4d 89 46 08          	mov    %r8,0x8(%r14)
  4032c2:	4d 89 7e 10          	mov    %r15,0x10(%r14)
  4032c6:	48 8b 73 18          	mov    0x18(%rbx),%rsi
  4032ca:	45 31 ff             	xor    %r15d,%r15d
  4032cd:	48 8b 4b 20          	mov    0x20(%rbx),%rcx
  4032d1:	48 29 f1             	sub    %rsi,%rcx
  4032d4:	48 c1 f9 02          	sar    $0x2,%rcx
  4032d8:	48 85 c9             	test   %rcx,%rcx
  4032db:	74 16                	je     4032f3 <_ZN14MultiCameraPnP13getPointCloudEv+0xe3>
  4032dd:	4c 8d 3c 8d 00 00 00 	lea    0x0(,%rcx,4),%r15
  4032e4:	00 
  4032e5:	4c 89 c7             	mov    %r8,%rdi
  4032e8:	4c 89 fa             	mov    %r15,%rdx
  4032eb:	e8 70 e6 ff ff       	callq  401960 <memmove@plt>
  4032f0:	49 89 c0             	mov    %rax,%r8
  4032f3:	4c 89 e0             	mov    %r12,%rax
  4032f6:	48 2b 45 a0          	sub    -0x60(%rbp),%rax
  4032fa:	48 8b 55 98          	mov    -0x68(%rbp),%rdx
  4032fe:	4d 01 f8             	add    %r15,%r8
  403301:	4c 89 44 02 08       	mov    %r8,0x8(%rdx,%rax,1)
  403306:	f2 0f 10 43 30       	movsd  0x30(%rbx),%xmm0
  40330b:	f2 41 0f 11 44 24 30 	movsd  %xmm0,0x30(%r12)
  403312:	49 83 c4 38          	add    $0x38,%r12
  403316:	48 83 c3 38          	add    $0x38,%rbx
  40331a:	49 83 c6 38          	add    $0x38,%r14
  40331e:	49 83 c5 38          	add    $0x38,%r13
  403322:	48 39 5d a8          	cmp    %rbx,-0x58(%rbp)
  403326:	0f 84 8c 00 00 00    	je     4033b8 <_ZN14MultiCameraPnP13getPointCloudEv+0x1a8>
  40332c:	4d 85 e4             	test   %r12,%r12
  40332f:	74 e1                	je     403312 <_ZN14MultiCameraPnP13getPointCloudEv+0x102>
  403331:	f2 0f 10 03          	movsd  (%rbx),%xmm0
  403335:	48 8b 4b 20          	mov    0x20(%rbx),%rcx
  403339:	48 2b 4b 18          	sub    0x18(%rbx),%rcx
  40333d:	45 31 ff             	xor    %r15d,%r15d
  403340:	45 31 c0             	xor    %r8d,%r8d
  403343:	f2 41 0f 11 04 24    	movsd  %xmm0,(%r12)
  403349:	f2 0f 10 43 08       	movsd  0x8(%rbx),%xmm0
  40334e:	48 c1 f9 02          	sar    $0x2,%rcx
  403352:	f2 41 0f 11 44 24 08 	movsd  %xmm0,0x8(%r12)
  403359:	48 85 c9             	test   %rcx,%rcx
  40335c:	f2 0f 10 43 10       	movsd  0x10(%rbx),%xmm0
  403361:	f2 41 0f 11 44 24 10 	movsd  %xmm0,0x10(%r12)
  403368:	49 c7 45 00 00 00 00 	movq   $0x0,0x0(%r13)
  40336f:	00 
  403370:	49 c7 45 08 00 00 00 	movq   $0x0,0x8(%r13)
  403377:	00 
  403378:	49 c7 45 10 00 00 00 	movq   $0x0,0x10(%r13)
  40337f:	00 
  403380:	0f 84 32 ff ff ff    	je     4032b8 <_ZN14MultiCameraPnP13getPointCloudEv+0xa8>
  403386:	48 b8 ff ff ff ff ff 	movabs $0x3fffffffffffffff,%rax
  40338d:	ff ff 3f 
  403390:	48 39 c1             	cmp    %rax,%rcx
  403393:	0f 87 e4 00 00 00    	ja     40347d <_ZN14MultiCameraPnP13getPointCloudEv+0x26d>
  403399:	4c 8d 3c 8d 00 00 00 	lea    0x0(,%rcx,4),%r15
  4033a0:	00 
  4033a1:	4c 89 ff             	mov    %r15,%rdi
  4033a4:	e8 a7 e5 ff ff       	callq  401950 <_Znwm@plt>
  4033a9:	49 89 c0             	mov    %rax,%r8
  4033ac:	e9 07 ff ff ff       	jmpq   4032b8 <_ZN14MultiCameraPnP13getPointCloudEv+0xa8>
  4033b1:	4c 8b 65 a0          	mov    -0x60(%rbp),%r12
  4033b5:	0f 1f 00             	nopl   (%rax)
  4033b8:	48 8b 7d 90          	mov    -0x70(%rbp),%rdi
  4033bc:	48 8d 75 b0          	lea    -0x50(%rbp),%rsi
  4033c0:	4c 89 65 b8          	mov    %r12,-0x48(%rbp)
  4033c4:	e8 a7 e5 ff ff       	callq  401970 <_Z19CloudPointsToPointsSt6vectorI10CloudPointSaIS0_EE@plt>
  4033c9:	4c 8b 6d b8          	mov    -0x48(%rbp),%r13
  4033cd:	4c 8b 65 b0          	mov    -0x50(%rbp),%r12
  4033d1:	4d 39 e5             	cmp    %r12,%r13
  4033d4:	0f 84 9e 00 00 00    	je     403478 <_ZN14MultiCameraPnP13getPointCloudEv+0x268>
  4033da:	4d 8d 74 24 18       	lea    0x18(%r12),%r14
  4033df:	4c 89 e3             	mov    %r12,%rbx
  4033e2:	66 0f 1f 44 00 00    	nopw   0x0(%rax,%rax,1)
  4033e8:	48 89 d8             	mov    %rbx,%rax
  4033eb:	4c 29 e0             	sub    %r12,%rax
  4033ee:	49 8b 3c 06          	mov    (%r14,%rax,1),%rdi
  4033f2:	48 85 ff             	test   %rdi,%rdi
  4033f5:	74 05                	je     4033fc <_ZN14MultiCameraPnP13getPointCloudEv+0x1ec>
  4033f7:	e8 04 e6 ff ff       	callq  401a00 <_ZdlPv@plt>
  4033fc:	48 83 c3 38          	add    $0x38,%rbx
  403400:	49 39 dd             	cmp    %rbx,%r13
  403403:	75 e3                	jne    4033e8 <_ZN14MultiCameraPnP13getPointCloudEv+0x1d8>
  403405:	48 8b 7d b0          	mov    -0x50(%rbp),%rdi
  403409:	48 85 ff             	test   %rdi,%rdi
  40340c:	74 05                	je     403413 <_ZN14MultiCameraPnP13getPointCloudEv+0x203>
  40340e:	e8 ed e5 ff ff       	callq  401a00 <_ZdlPv@plt>
  403413:	48 8b 45 90          	mov    -0x70(%rbp),%rax
  403417:	48 83 c4 48          	add    $0x48,%rsp
  40341b:	5b                   	pop    %rbx
  40341c:	41 5c                	pop    %r12
  40341e:	41 5d                	pop    %r13
  403420:	41 5e                	pop    %r14
  403422:	41 5f                	pop    %r15
  403424:	5d                   	pop    %rbp
  403425:	c3                   	retq   
  403426:	66 2e 0f 1f 84 00 00 	nopw   %cs:0x0(%rax,%rax,1)
  40342d:	00 00 00 
  403430:	48 ba 92 24 49 92 24 	movabs $0x492492492492492,%rdx
  403437:	49 92 04 
  40343a:	48 39 d0             	cmp    %rdx,%rax
  40343d:	0f 87 8e 00 00 00    	ja     4034d1 <_ZN14MultiCameraPnP13getPointCloudEv+0x2c1>
  403443:	48 8d 14 c5 00 00 00 	lea    0x0(,%rax,8),%rdx
  40344a:	00 
  40344b:	49 89 c4             	mov    %rax,%r12
  40344e:	49 c1 e4 06          	shl    $0x6,%r12
  403452:	49 29 d4             	sub    %rdx,%r12
  403455:	4c 89 e7             	mov    %r12,%rdi
  403458:	e8 f3 e4 ff ff       	callq  401950 <_Znwm@plt>
  40345d:	48 89 45 a0          	mov    %rax,-0x60(%rbp)
  403461:	49 8b 85 38 03 00 00 	mov    0x338(%r13),%rax
  403468:	49 8b 9d 30 03 00 00 	mov    0x330(%r13),%rbx
  40346f:	48 89 45 a8          	mov    %rax,-0x58(%rbp)
  403473:	e9 0b fe ff ff       	jmpq   403283 <_ZN14MultiCameraPnP13getPointCloudEv+0x73>
  403478:	4c 89 ef             	mov    %r13,%rdi
  40347b:	eb 8c                	jmp    403409 <_ZN14MultiCameraPnP13getPointCloudEv+0x1f9>
  40347d:	e8 be e4 ff ff       	callq  401940 <_ZSt17__throw_bad_allocv@plt>
  403482:	48 89 c7             	mov    %rax,%rdi
  403485:	e8 96 e4 ff ff       	callq  401920 <__cxa_begin_catch@plt>
  40348a:	48 8b 45 a0          	mov    -0x60(%rbp),%rax
  40348e:	4c 39 e0             	cmp    %r12,%rax
  403491:	48 89 c3             	mov    %rax,%rbx
  403494:	74 22                	je     4034b8 <_ZN14MultiCameraPnP13getPointCloudEv+0x2a8>
  403496:	48 89 d8             	mov    %rbx,%rax
  403499:	48 2b 45 a0          	sub    -0x60(%rbp),%rax
  40349d:	48 8b 55 98          	mov    -0x68(%rbp),%rdx
  4034a1:	48 8b 3c 02          	mov    (%rdx,%rax,1),%rdi
  4034a5:	48 85 ff             	test   %rdi,%rdi
  4034a8:	74 05                	je     4034af <_ZN14MultiCameraPnP13getPointCloudEv+0x29f>
  4034aa:	e8 51 e5 ff ff       	callq  401a00 <_ZdlPv@plt>
  4034af:	48 83 c3 38          	add    $0x38,%rbx
  4034b3:	4c 39 e3             	cmp    %r12,%rbx
  4034b6:	75 de                	jne    403496 <_ZN14MultiCameraPnP13getPointCloudEv+0x286>
  4034b8:	e8 03 e6 ff ff       	callq  401ac0 <__cxa_rethrow@plt>
  4034bd:	48 8d 7d b0          	lea    -0x50(%rbp),%rdi
  4034c1:	48 89 c3             	mov    %rax,%rbx
  4034c4:	e8 b7 fc ff ff       	callq  403180 <_ZNSt6vectorI10CloudPointSaIS0_EED1Ev>
  4034c9:	48 89 df             	mov    %rbx,%rdi
  4034cc:	e8 7f e5 ff ff       	callq  401a50 <_Unwind_Resume@plt>
  4034d1:	e8 6a e4 ff ff       	callq  401940 <_ZSt17__throw_bad_allocv@plt>
  4034d6:	48 89 c3             	mov    %rax,%rbx
  4034d9:	e8 b2 e5 ff ff       	callq  401a90 <__cxa_end_catch@plt>
  4034de:	48 8b 7d b0          	mov    -0x50(%rbp),%rdi
  4034e2:	48 85 ff             	test   %rdi,%rdi
  4034e5:	74 e2                	je     4034c9 <_ZN14MultiCameraPnP13getPointCloudEv+0x2b9>
  4034e7:	e8 14 e5 ff ff       	callq  401a00 <_ZdlPv@plt>
  4034ec:	eb db                	jmp    4034c9 <_ZN14MultiCameraPnP13getPointCloudEv+0x2b9>
  4034ee:	66 90                	xchg   %ax,%ax

00000000004034f0 <_ZNSt8_Rb_treeISt4pairIiiES0_IKS1_St6vectorIN2cv6DMatchESaIS5_EEESt10_Select1stIS8_ESt4lessIS1_ESaIS8_EE8_M_eraseEPSt13_Rb_tree_nodeIS8_E>:
  4034f0:	55                   	push   %rbp
  4034f1:	48 89 e5             	mov    %rsp,%rbp
  4034f4:	41 55                	push   %r13
  4034f6:	41 54                	push   %r12
  4034f8:	53                   	push   %rbx
  4034f9:	48 83 ec 08          	sub    $0x8,%rsp
  4034fd:	e8 ee e5 ff ff       	callq  401af0 <mcount@plt>
  403502:	48 85 f6             	test   %rsi,%rsi
  403505:	49 89 fd             	mov    %rdi,%r13
  403508:	48 89 f3             	mov    %rsi,%rbx
  40350b:	75 06                	jne    403513 <_ZNSt8_Rb_treeISt4pairIiiES0_IKS1_St6vectorIN2cv6DMatchESaIS5_EEESt10_Select1stIS8_ESt4lessIS1_ESaIS8_EE8_M_eraseEPSt13_Rb_tree_nodeIS8_E+0x23>
  40350d:	eb 2f                	jmp    40353e <_ZNSt8_Rb_treeISt4pairIiiES0_IKS1_St6vectorIN2cv6DMatchESaIS5_EEESt10_Select1stIS8_ESt4lessIS1_ESaIS8_EE8_M_eraseEPSt13_Rb_tree_nodeIS8_E+0x4e>
  40350f:	90                   	nop
  403510:	4c 89 e3             	mov    %r12,%rbx
  403513:	48 8b 73 18          	mov    0x18(%rbx),%rsi
  403517:	4c 89 ef             	mov    %r13,%rdi
  40351a:	e8 d1 ff ff ff       	callq  4034f0 <_ZNSt8_Rb_treeISt4pairIiiES0_IKS1_St6vectorIN2cv6DMatchESaIS5_EEESt10_Select1stIS8_ESt4lessIS1_ESaIS8_EE8_M_eraseEPSt13_Rb_tree_nodeIS8_E>
  40351f:	48 8b 7b 28          	mov    0x28(%rbx),%rdi
  403523:	4c 8b 63 10          	mov    0x10(%rbx),%r12
  403527:	48 85 ff             	test   %rdi,%rdi
  40352a:	74 05                	je     403531 <_ZNSt8_Rb_treeISt4pairIiiES0_IKS1_St6vectorIN2cv6DMatchESaIS5_EEESt10_Select1stIS8_ESt4lessIS1_ESaIS8_EE8_M_eraseEPSt13_Rb_tree_nodeIS8_E+0x41>
  40352c:	e8 cf e4 ff ff       	callq  401a00 <_ZdlPv@plt>
  403531:	48 89 df             	mov    %rbx,%rdi
  403534:	e8 c7 e4 ff ff       	callq  401a00 <_ZdlPv@plt>
  403539:	4d 85 e4             	test   %r12,%r12
  40353c:	75 d2                	jne    403510 <_ZNSt8_Rb_treeISt4pairIiiES0_IKS1_St6vectorIN2cv6DMatchESaIS5_EEESt10_Select1stIS8_ESt4lessIS1_ESaIS8_EE8_M_eraseEPSt13_Rb_tree_nodeIS8_E+0x20>
  40353e:	48 83 c4 08          	add    $0x8,%rsp
  403542:	5b                   	pop    %rbx
  403543:	41 5c                	pop    %r12
  403545:	41 5d                	pop    %r13
  403547:	5d                   	pop    %rbp
  403548:	c3                   	retq   
  403549:	0f 1f 80 00 00 00 00 	nopl   0x0(%rax)

0000000000403550 <_ZNSt8_Rb_treeIiSt4pairIKiN2cv4MatxIdLi3ELi4EEEESt10_Select1stIS5_ESt4lessIiESaIS5_EE8_M_eraseEPSt13_Rb_tree_nodeIS5_E>:
  403550:	55                   	push   %rbp
  403551:	48 89 e5             	mov    %rsp,%rbp
  403554:	41 55                	push   %r13
  403556:	41 54                	push   %r12
  403558:	53                   	push   %rbx
  403559:	48 83 ec 08          	sub    $0x8,%rsp
  40355d:	e8 8e e5 ff ff       	callq  401af0 <mcount@plt>
  403562:	48 85 f6             	test   %rsi,%rsi
  403565:	49 89 fd             	mov    %rdi,%r13
  403568:	48 89 f3             	mov    %rsi,%rbx
  40356b:	75 06                	jne    403573 <_ZNSt8_Rb_treeIiSt4pairIKiN2cv4MatxIdLi3ELi4EEEESt10_Select1stIS5_ESt4lessIiESaIS5_EE8_M_eraseEPSt13_Rb_tree_nodeIS5_E+0x23>
  40356d:	eb 21                	jmp    403590 <_ZNSt8_Rb_treeIiSt4pairIKiN2cv4MatxIdLi3ELi4EEEESt10_Select1stIS5_ESt4lessIiESaIS5_EE8_M_eraseEPSt13_Rb_tree_nodeIS5_E+0x40>
  40356f:	90                   	nop
  403570:	4c 89 e3             	mov    %r12,%rbx
  403573:	48 8b 73 18          	mov    0x18(%rbx),%rsi
  403577:	4c 89 ef             	mov    %r13,%rdi
  40357a:	e8 d1 ff ff ff       	callq  403550 <_ZNSt8_Rb_treeIiSt4pairIKiN2cv4MatxIdLi3ELi4EEEESt10_Select1stIS5_ESt4lessIiESaIS5_EE8_M_eraseEPSt13_Rb_tree_nodeIS5_E>
  40357f:	4c 8b 63 10          	mov    0x10(%rbx),%r12
  403583:	48 89 df             	mov    %rbx,%rdi
  403586:	e8 75 e4 ff ff       	callq  401a00 <_ZdlPv@plt>
  40358b:	4d 85 e4             	test   %r12,%r12
  40358e:	75 e0                	jne    403570 <_ZNSt8_Rb_treeIiSt4pairIKiN2cv4MatxIdLi3ELi4EEEESt10_Select1stIS5_ESt4lessIiESaIS5_EE8_M_eraseEPSt13_Rb_tree_nodeIS5_E+0x20>
  403590:	48 83 c4 08          	add    $0x8,%rsp
  403594:	5b                   	pop    %rbx
  403595:	41 5c                	pop    %r12
  403597:	41 5d                	pop    %r13
  403599:	5d                   	pop    %rbp
  40359a:	c3                   	retq   
  40359b:	0f 1f 44 00 00       	nopl   0x0(%rax,%rax,1)

00000000004035a0 <_ZNSt8_Rb_treeIiiSt9_IdentityIiESt4lessIiESaIiEE8_M_eraseEPSt13_Rb_tree_nodeIiE>:
  4035a0:	55                   	push   %rbp
  4035a1:	48 89 e5             	mov    %rsp,%rbp
  4035a4:	41 55                	push   %r13
  4035a6:	41 54                	push   %r12
  4035a8:	53                   	push   %rbx
  4035a9:	48 83 ec 08          	sub    $0x8,%rsp
  4035ad:	e8 3e e5 ff ff       	callq  401af0 <mcount@plt>
  4035b2:	48 85 f6             	test   %rsi,%rsi
  4035b5:	49 89 fd             	mov    %rdi,%r13
  4035b8:	48 89 f3             	mov    %rsi,%rbx
  4035bb:	75 06                	jne    4035c3 <_ZNSt8_Rb_treeIiiSt9_IdentityIiESt4lessIiESaIiEE8_M_eraseEPSt13_Rb_tree_nodeIiE+0x23>
  4035bd:	eb 21                	jmp    4035e0 <_ZNSt8_Rb_treeIiiSt9_IdentityIiESt4lessIiESaIiEE8_M_eraseEPSt13_Rb_tree_nodeIiE+0x40>
  4035bf:	90                   	nop
  4035c0:	4c 89 e3             	mov    %r12,%rbx
  4035c3:	48 8b 73 18          	mov    0x18(%rbx),%rsi
  4035c7:	4c 89 ef             	mov    %r13,%rdi
  4035ca:	e8 d1 ff ff ff       	callq  4035a0 <_ZNSt8_Rb_treeIiiSt9_IdentityIiESt4lessIiESaIiEE8_M_eraseEPSt13_Rb_tree_nodeIiE>
  4035cf:	4c 8b 63 10          	mov    0x10(%rbx),%r12
  4035d3:	48 89 df             	mov    %rbx,%rdi
  4035d6:	e8 25 e4 ff ff       	callq  401a00 <_ZdlPv@plt>
  4035db:	4d 85 e4             	test   %r12,%r12
  4035de:	75 e0                	jne    4035c0 <_ZNSt8_Rb_treeIiiSt9_IdentityIiESt4lessIiESaIiEE8_M_eraseEPSt13_Rb_tree_nodeIiE+0x20>
  4035e0:	48 83 c4 08          	add    $0x8,%rsp
  4035e4:	5b                   	pop    %rbx
  4035e5:	41 5c                	pop    %r12
  4035e7:	41 5d                	pop    %r13
  4035e9:	5d                   	pop    %rbp
  4035ea:	c3                   	retq   
  4035eb:	0f 1f 44 00 00       	nopl   0x0(%rax,%rax,1)

00000000004035f0 <_ZN14MultiCameraPnPD1Ev>:
  4035f0:	55                   	push   %rbp
  4035f1:	48 89 e5             	mov    %rsp,%rbp
  4035f4:	41 57                	push   %r15
  4035f6:	41 56                	push   %r14
  4035f8:	41 55                	push   %r13
  4035fa:	41 54                	push   %r12
  4035fc:	53                   	push   %rbx
  4035fd:	48 83 ec 18          	sub    $0x18,%rsp
  403601:	e8 ea e4 ff ff       	callq  401af0 <mcount@plt>
  403606:	48 89 fb             	mov    %rdi,%rbx
  403609:	48 8b bf 30 04 00 00 	mov    0x430(%rdi),%rdi
  403610:	48 85 ff             	test   %rdi,%rdi
  403613:	74 05                	je     40361a <_ZN14MultiCameraPnPD1Ev+0x2a>
  403615:	e8 e6 e3 ff ff       	callq  401a00 <_ZdlPv@plt>
  40361a:	48 8b b3 10 04 00 00 	mov    0x410(%rbx),%rsi
  403621:	48 8d bb 00 04 00 00 	lea    0x400(%rbx),%rdi
  403628:	e8 73 ff ff ff       	callq  4035a0 <_ZNSt8_Rb_treeIiiSt9_IdentityIiESt4lessIiESaIiEE8_M_eraseEPSt13_Rb_tree_nodeIiE>
  40362d:	48 8b b3 e0 03 00 00 	mov    0x3e0(%rbx),%rsi
  403634:	48 8d bb d0 03 00 00 	lea    0x3d0(%rbx),%rdi
  40363b:	e8 60 ff ff ff       	callq  4035a0 <_ZNSt8_Rb_treeIiiSt9_IdentityIiESt4lessIiESaIiEE8_M_eraseEPSt13_Rb_tree_nodeIiE>
  403640:	48 8b bb a8 03 00 00 	mov    0x3a8(%rbx),%rdi
  403647:	48 85 ff             	test   %rdi,%rdi
  40364a:	74 05                	je     403651 <_ZN14MultiCameraPnPD1Ev+0x61>
  40364c:	e8 af e3 ff ff       	callq  401a00 <_ZdlPv@plt>
  403651:	4c 8b b3 98 03 00 00 	mov    0x398(%rbx),%r14
  403658:	4c 8b ab 90 03 00 00 	mov    0x390(%rbx),%r13
  40365f:	4d 39 ee             	cmp    %r13,%r14
  403662:	0f 84 8d 07 00 00    	je     403df5 <_ZN14MultiCameraPnPD1Ev+0x805>
  403668:	4d 8d 7d 18          	lea    0x18(%r13),%r15
  40366c:	4d 89 ec             	mov    %r13,%r12
  40366f:	90                   	nop
  403670:	4c 89 e0             	mov    %r12,%rax
  403673:	4c 29 e8             	sub    %r13,%rax
  403676:	49 8b 3c 07          	mov    (%r15,%rax,1),%rdi
  40367a:	48 85 ff             	test   %rdi,%rdi
  40367d:	74 05                	je     403684 <_ZN14MultiCameraPnPD1Ev+0x94>
  40367f:	e8 7c e3 ff ff       	callq  401a00 <_ZdlPv@plt>
  403684:	49 83 c4 38          	add    $0x38,%r12
  403688:	4d 39 e6             	cmp    %r12,%r14
  40368b:	75 e3                	jne    403670 <_ZN14MultiCameraPnPD1Ev+0x80>
  40368d:	48 8b bb 90 03 00 00 	mov    0x390(%rbx),%rdi
  403694:	48 85 ff             	test   %rdi,%rdi
  403697:	74 05                	je     40369e <_ZN14MultiCameraPnPD1Ev+0xae>
  403699:	e8 62 e3 ff ff       	callq  401a00 <_ZdlPv@plt>
  40369e:	48 8b 83 80 03 00 00 	mov    0x380(%rbx),%rax
  4036a5:	48 85 c0             	test   %rax,%rax
  4036a8:	74 0a                	je     4036b4 <_ZN14MultiCameraPnPD1Ev+0xc4>
  4036aa:	f0 83 28 01          	lock subl $0x1,(%rax)
  4036ae:	0f 84 a9 06 00 00    	je     403d5d <_ZN14MultiCameraPnPD1Ev+0x76d>
  4036b4:	48 8b bb 60 03 00 00 	mov    0x360(%rbx),%rdi
  4036bb:	48 c7 83 80 03 00 00 	movq   $0x0,0x380(%rbx)
  4036c2:	00 00 00 00 
  4036c6:	48 c7 83 78 03 00 00 	movq   $0x0,0x378(%rbx)
  4036cd:	00 00 00 00 
  4036d1:	48 85 ff             	test   %rdi,%rdi
  4036d4:	74 05                	je     4036db <_ZN14MultiCameraPnPD1Ev+0xeb>
  4036d6:	e8 25 e3 ff ff       	callq  401a00 <_ZdlPv@plt>
  4036db:	48 8b bb 48 03 00 00 	mov    0x348(%rbx),%rdi
  4036e2:	48 85 ff             	test   %rdi,%rdi
  4036e5:	74 05                	je     4036ec <_ZN14MultiCameraPnPD1Ev+0xfc>
  4036e7:	e8 14 e3 ff ff       	callq  401a00 <_ZdlPv@plt>
  4036ec:	4c 8b b3 38 03 00 00 	mov    0x338(%rbx),%r14
  4036f3:	4c 8b ab 30 03 00 00 	mov    0x330(%rbx),%r13
  4036fa:	4d 39 ee             	cmp    %r13,%r14
  4036fd:	0f 84 e2 06 00 00    	je     403de5 <_ZN14MultiCameraPnPD1Ev+0x7f5>
  403703:	4d 8d 7d 18          	lea    0x18(%r13),%r15
  403707:	4d 89 ec             	mov    %r13,%r12
  40370a:	66 0f 1f 44 00 00    	nopw   0x0(%rax,%rax,1)
  403710:	4c 89 e0             	mov    %r12,%rax
  403713:	4c 29 e8             	sub    %r13,%rax
  403716:	49 8b 3c 07          	mov    (%r15,%rax,1),%rdi
  40371a:	48 85 ff             	test   %rdi,%rdi
  40371d:	74 05                	je     403724 <_ZN14MultiCameraPnPD1Ev+0x134>
  40371f:	e8 dc e2 ff ff       	callq  401a00 <_ZdlPv@plt>
  403724:	49 83 c4 38          	add    $0x38,%r12
  403728:	4d 39 e6             	cmp    %r12,%r14
  40372b:	75 e3                	jne    403710 <_ZN14MultiCameraPnPD1Ev+0x120>
  40372d:	48 8b bb 30 03 00 00 	mov    0x330(%rbx),%rdi
  403734:	48 85 ff             	test   %rdi,%rdi
  403737:	74 05                	je     40373e <_ZN14MultiCameraPnPD1Ev+0x14e>
  403739:	e8 c2 e2 ff ff       	callq  401a00 <_ZdlPv@plt>
  40373e:	48 8b 83 e8 02 00 00 	mov    0x2e8(%rbx),%rax
  403745:	48 85 c0             	test   %rax,%rax
  403748:	74 0a                	je     403754 <_ZN14MultiCameraPnPD1Ev+0x164>
  40374a:	f0 83 28 01          	lock subl $0x1,(%rax)
  40374e:	0f 84 80 06 00 00    	je     403dd4 <_ZN14MultiCameraPnPD1Ev+0x7e4>
  403754:	44 8b 93 d4 02 00 00 	mov    0x2d4(%rbx),%r10d
  40375b:	48 c7 83 00 03 00 00 	movq   $0x0,0x300(%rbx)
  403762:	00 00 00 00 
  403766:	48 c7 83 f8 02 00 00 	movq   $0x0,0x2f8(%rbx)
  40376d:	00 00 00 00 
  403771:	48 c7 83 f0 02 00 00 	movq   $0x0,0x2f0(%rbx)
  403778:	00 00 00 00 
  40377c:	48 c7 83 e0 02 00 00 	movq   $0x0,0x2e0(%rbx)
  403783:	00 00 00 00 
  403787:	45 85 d2             	test   %r10d,%r10d
  40378a:	7e 21                	jle    4037ad <_ZN14MultiCameraPnPD1Ev+0x1bd>
  40378c:	48 8b 93 10 03 00 00 	mov    0x310(%rbx),%rdx
  403793:	31 c0                	xor    %eax,%eax
  403795:	0f 1f 00             	nopl   (%rax)
  403798:	c7 02 00 00 00 00    	movl   $0x0,(%rdx)
  40379e:	83 c0 01             	add    $0x1,%eax
  4037a1:	48 83 c2 04          	add    $0x4,%rdx
  4037a5:	3b 83 d4 02 00 00    	cmp    0x2d4(%rbx),%eax
  4037ab:	7c eb                	jl     403798 <_ZN14MultiCameraPnPD1Ev+0x1a8>
  4037ad:	48 8b bb 18 03 00 00 	mov    0x318(%rbx),%rdi
  4037b4:	48 8d 83 20 03 00 00 	lea    0x320(%rbx),%rax
  4037bb:	48 c7 83 e8 02 00 00 	movq   $0x0,0x2e8(%rbx)
  4037c2:	00 00 00 00 
  4037c6:	48 39 c7             	cmp    %rax,%rdi
  4037c9:	74 05                	je     4037d0 <_ZN14MultiCameraPnPD1Ev+0x1e0>
  4037cb:	e8 30 e3 ff ff       	callq  401b00 <_ZN2cv8fastFreeEPv@plt>
  4037d0:	48 8b 83 88 02 00 00 	mov    0x288(%rbx),%rax
  4037d7:	48 85 c0             	test   %rax,%rax
  4037da:	74 0a                	je     4037e6 <_ZN14MultiCameraPnPD1Ev+0x1f6>
  4037dc:	f0 83 28 01          	lock subl $0x1,(%rax)
  4037e0:	0f 84 dd 05 00 00    	je     403dc3 <_ZN14MultiCameraPnPD1Ev+0x7d3>
  4037e6:	44 8b 8b 74 02 00 00 	mov    0x274(%rbx),%r9d
  4037ed:	48 c7 83 a0 02 00 00 	movq   $0x0,0x2a0(%rbx)
  4037f4:	00 00 00 00 
  4037f8:	48 c7 83 98 02 00 00 	movq   $0x0,0x298(%rbx)
  4037ff:	00 00 00 00 
  403803:	48 c7 83 90 02 00 00 	movq   $0x0,0x290(%rbx)
  40380a:	00 00 00 00 
  40380e:	48 c7 83 80 02 00 00 	movq   $0x0,0x280(%rbx)
  403815:	00 00 00 00 
  403819:	45 85 c9             	test   %r9d,%r9d
  40381c:	7e 27                	jle    403845 <_ZN14MultiCameraPnPD1Ev+0x255>
  40381e:	48 8b 93 b0 02 00 00 	mov    0x2b0(%rbx),%rdx
  403825:	31 c0                	xor    %eax,%eax
  403827:	66 0f 1f 84 00 00 00 	nopw   0x0(%rax,%rax,1)
  40382e:	00 00 
  403830:	c7 02 00 00 00 00    	movl   $0x0,(%rdx)
  403836:	83 c0 01             	add    $0x1,%eax
  403839:	48 83 c2 04          	add    $0x4,%rdx
  40383d:	3b 83 74 02 00 00    	cmp    0x274(%rbx),%eax
  403843:	7c eb                	jl     403830 <_ZN14MultiCameraPnPD1Ev+0x240>
  403845:	48 8b bb b8 02 00 00 	mov    0x2b8(%rbx),%rdi
  40384c:	48 8d 83 c0 02 00 00 	lea    0x2c0(%rbx),%rax
  403853:	48 c7 83 88 02 00 00 	movq   $0x0,0x288(%rbx)
  40385a:	00 00 00 00 
  40385e:	48 39 c7             	cmp    %rax,%rdi
  403861:	74 05                	je     403868 <_ZN14MultiCameraPnPD1Ev+0x278>
  403863:	e8 98 e2 ff ff       	callq  401b00 <_ZN2cv8fastFreeEPv@plt>
  403868:	48 8b 83 28 02 00 00 	mov    0x228(%rbx),%rax
  40386f:	48 85 c0             	test   %rax,%rax
  403872:	74 0a                	je     40387e <_ZN14MultiCameraPnPD1Ev+0x28e>
  403874:	f0 83 28 01          	lock subl $0x1,(%rax)
  403878:	0f 84 34 05 00 00    	je     403db2 <_ZN14MultiCameraPnPD1Ev+0x7c2>
  40387e:	44 8b 83 14 02 00 00 	mov    0x214(%rbx),%r8d
  403885:	48 c7 83 40 02 00 00 	movq   $0x0,0x240(%rbx)
  40388c:	00 00 00 00 
  403890:	48 c7 83 38 02 00 00 	movq   $0x0,0x238(%rbx)
  403897:	00 00 00 00 
  40389b:	48 c7 83 30 02 00 00 	movq   $0x0,0x230(%rbx)
  4038a2:	00 00 00 00 
  4038a6:	48 c7 83 20 02 00 00 	movq   $0x0,0x220(%rbx)
  4038ad:	00 00 00 00 
  4038b1:	45 85 c0             	test   %r8d,%r8d
  4038b4:	7e 1f                	jle    4038d5 <_ZN14MultiCameraPnPD1Ev+0x2e5>
  4038b6:	48 8b 93 50 02 00 00 	mov    0x250(%rbx),%rdx
  4038bd:	31 c0                	xor    %eax,%eax
  4038bf:	90                   	nop
  4038c0:	c7 02 00 00 00 00    	movl   $0x0,(%rdx)
  4038c6:	83 c0 01             	add    $0x1,%eax
  4038c9:	48 83 c2 04          	add    $0x4,%rdx
  4038cd:	3b 83 14 02 00 00    	cmp    0x214(%rbx),%eax
  4038d3:	7c eb                	jl     4038c0 <_ZN14MultiCameraPnPD1Ev+0x2d0>
  4038d5:	48 8b bb 58 02 00 00 	mov    0x258(%rbx),%rdi
  4038dc:	48 8d 83 60 02 00 00 	lea    0x260(%rbx),%rax
  4038e3:	48 c7 83 28 02 00 00 	movq   $0x0,0x228(%rbx)
  4038ea:	00 00 00 00 
  4038ee:	48 39 c7             	cmp    %rax,%rdi
  4038f1:	74 05                	je     4038f8 <_ZN14MultiCameraPnPD1Ev+0x308>
  4038f3:	e8 08 e2 ff ff       	callq  401b00 <_ZN2cv8fastFreeEPv@plt>
  4038f8:	48 8b 83 c8 01 00 00 	mov    0x1c8(%rbx),%rax
  4038ff:	48 85 c0             	test   %rax,%rax
  403902:	74 0a                	je     40390e <_ZN14MultiCameraPnPD1Ev+0x31e>
  403904:	f0 83 28 01          	lock subl $0x1,(%rax)
  403908:	0f 84 93 04 00 00    	je     403da1 <_ZN14MultiCameraPnPD1Ev+0x7b1>
  40390e:	8b bb b4 01 00 00    	mov    0x1b4(%rbx),%edi
  403914:	48 c7 83 e0 01 00 00 	movq   $0x0,0x1e0(%rbx)
  40391b:	00 00 00 00 
  40391f:	48 c7 83 d8 01 00 00 	movq   $0x0,0x1d8(%rbx)
  403926:	00 00 00 00 
  40392a:	48 c7 83 d0 01 00 00 	movq   $0x0,0x1d0(%rbx)
  403931:	00 00 00 00 
  403935:	48 c7 83 c0 01 00 00 	movq   $0x0,0x1c0(%rbx)
  40393c:	00 00 00 00 
  403940:	85 ff                	test   %edi,%edi
  403942:	7e 21                	jle    403965 <_ZN14MultiCameraPnPD1Ev+0x375>
  403944:	48 8b 93 f0 01 00 00 	mov    0x1f0(%rbx),%rdx
  40394b:	31 c0                	xor    %eax,%eax
  40394d:	0f 1f 00             	nopl   (%rax)
  403950:	c7 02 00 00 00 00    	movl   $0x0,(%rdx)
  403956:	83 c0 01             	add    $0x1,%eax
  403959:	48 83 c2 04          	add    $0x4,%rdx
  40395d:	3b 83 b4 01 00 00    	cmp    0x1b4(%rbx),%eax
  403963:	7c eb                	jl     403950 <_ZN14MultiCameraPnPD1Ev+0x360>
  403965:	48 8b bb f8 01 00 00 	mov    0x1f8(%rbx),%rdi
  40396c:	48 8d 83 00 02 00 00 	lea    0x200(%rbx),%rax
  403973:	48 c7 83 c8 01 00 00 	movq   $0x0,0x1c8(%rbx)
  40397a:	00 00 00 00 
  40397e:	48 39 c7             	cmp    %rax,%rdi
  403981:	74 05                	je     403988 <_ZN14MultiCameraPnPD1Ev+0x398>
  403983:	e8 78 e1 ff ff       	callq  401b00 <_ZN2cv8fastFreeEPv@plt>
  403988:	48 8b 83 68 01 00 00 	mov    0x168(%rbx),%rax
  40398f:	48 85 c0             	test   %rax,%rax
  403992:	74 0a                	je     40399e <_ZN14MultiCameraPnPD1Ev+0x3ae>
  403994:	f0 83 28 01          	lock subl $0x1,(%rax)
  403998:	0f 84 f2 03 00 00    	je     403d90 <_ZN14MultiCameraPnPD1Ev+0x7a0>
  40399e:	8b b3 54 01 00 00    	mov    0x154(%rbx),%esi
  4039a4:	48 c7 83 80 01 00 00 	movq   $0x0,0x180(%rbx)
  4039ab:	00 00 00 00 
  4039af:	48 c7 83 78 01 00 00 	movq   $0x0,0x178(%rbx)
  4039b6:	00 00 00 00 
  4039ba:	48 c7 83 70 01 00 00 	movq   $0x0,0x170(%rbx)
  4039c1:	00 00 00 00 
  4039c5:	48 c7 83 60 01 00 00 	movq   $0x0,0x160(%rbx)
  4039cc:	00 00 00 00 
  4039d0:	85 f6                	test   %esi,%esi
  4039d2:	7e 21                	jle    4039f5 <_ZN14MultiCameraPnPD1Ev+0x405>
  4039d4:	48 8b 93 90 01 00 00 	mov    0x190(%rbx),%rdx
  4039db:	31 c0                	xor    %eax,%eax
  4039dd:	0f 1f 00             	nopl   (%rax)
  4039e0:	c7 02 00 00 00 00    	movl   $0x0,(%rdx)
  4039e6:	83 c0 01             	add    $0x1,%eax
  4039e9:	48 83 c2 04          	add    $0x4,%rdx
  4039ed:	3b 83 54 01 00 00    	cmp    0x154(%rbx),%eax
  4039f3:	7c eb                	jl     4039e0 <_ZN14MultiCameraPnPD1Ev+0x3f0>
  4039f5:	48 8b bb 98 01 00 00 	mov    0x198(%rbx),%rdi
  4039fc:	48 8d 83 a0 01 00 00 	lea    0x1a0(%rbx),%rax
  403a03:	48 c7 83 68 01 00 00 	movq   $0x0,0x168(%rbx)
  403a0a:	00 00 00 00 
  403a0e:	48 39 c7             	cmp    %rax,%rdi
  403a11:	74 05                	je     403a18 <_ZN14MultiCameraPnPD1Ev+0x428>
  403a13:	e8 e8 e0 ff ff       	callq  401b00 <_ZN2cv8fastFreeEPv@plt>
  403a18:	48 8b 83 08 01 00 00 	mov    0x108(%rbx),%rax
  403a1f:	48 85 c0             	test   %rax,%rax
  403a22:	74 0a                	je     403a2e <_ZN14MultiCameraPnPD1Ev+0x43e>
  403a24:	f0 83 28 01          	lock subl $0x1,(%rax)
  403a28:	0f 84 51 03 00 00    	je     403d7f <_ZN14MultiCameraPnPD1Ev+0x78f>
  403a2e:	8b 8b f4 00 00 00    	mov    0xf4(%rbx),%ecx
  403a34:	48 c7 83 20 01 00 00 	movq   $0x0,0x120(%rbx)
  403a3b:	00 00 00 00 
  403a3f:	48 c7 83 18 01 00 00 	movq   $0x0,0x118(%rbx)
  403a46:	00 00 00 00 
  403a4a:	48 c7 83 10 01 00 00 	movq   $0x0,0x110(%rbx)
  403a51:	00 00 00 00 
  403a55:	48 c7 83 00 01 00 00 	movq   $0x0,0x100(%rbx)
  403a5c:	00 00 00 00 
  403a60:	85 c9                	test   %ecx,%ecx
  403a62:	7e 21                	jle    403a85 <_ZN14MultiCameraPnPD1Ev+0x495>
  403a64:	48 8b 93 30 01 00 00 	mov    0x130(%rbx),%rdx
  403a6b:	31 c0                	xor    %eax,%eax
  403a6d:	0f 1f 00             	nopl   (%rax)
  403a70:	c7 02 00 00 00 00    	movl   $0x0,(%rdx)
  403a76:	83 c0 01             	add    $0x1,%eax
  403a79:	48 83 c2 04          	add    $0x4,%rdx
  403a7d:	3b 83 f4 00 00 00    	cmp    0xf4(%rbx),%eax
  403a83:	7c eb                	jl     403a70 <_ZN14MultiCameraPnPD1Ev+0x480>
  403a85:	48 8b bb 38 01 00 00 	mov    0x138(%rbx),%rdi
  403a8c:	48 8d 83 40 01 00 00 	lea    0x140(%rbx),%rax
  403a93:	48 c7 83 08 01 00 00 	movq   $0x0,0x108(%rbx)
  403a9a:	00 00 00 00 
  403a9e:	48 39 c7             	cmp    %rax,%rdi
  403aa1:	74 05                	je     403aa8 <_ZN14MultiCameraPnPD1Ev+0x4b8>
  403aa3:	e8 58 e0 ff ff       	callq  401b00 <_ZN2cv8fastFreeEPv@plt>
  403aa8:	48 8b b3 d0 00 00 00 	mov    0xd0(%rbx),%rsi
  403aaf:	48 8d bb c0 00 00 00 	lea    0xc0(%rbx),%rdi
  403ab6:	e8 95 fa ff ff       	callq  403550 <_ZNSt8_Rb_treeIiSt4pairIKiN2cv4MatxIdLi3ELi4EEEESt10_Select1stIS5_ESt4lessIiESaIS5_EE8_M_eraseEPSt13_Rb_tree_nodeIS5_E>
  403abb:	4c 8b ab b0 00 00 00 	mov    0xb0(%rbx),%r13
  403ac2:	4c 8b a3 a8 00 00 00 	mov    0xa8(%rbx),%r12
  403ac9:	4d 39 e5             	cmp    %r12,%r13
  403acc:	4c 89 ef             	mov    %r13,%rdi
  403acf:	74 2c                	je     403afd <_ZN14MultiCameraPnPD1Ev+0x50d>
  403ad1:	0f 1f 80 00 00 00 00 	nopl   0x0(%rax)
  403ad8:	49 8b 04 24          	mov    (%r12),%rax
  403adc:	48 8d 78 e8          	lea    -0x18(%rax),%rdi
  403ae0:	48 81 ff a0 51 60 00 	cmp    $0x6051a0,%rdi
  403ae7:	0f 85 b3 03 00 00    	jne    403ea0 <_ZN14MultiCameraPnPD1Ev+0x8b0>
  403aed:	49 83 c4 08          	add    $0x8,%r12
  403af1:	4d 39 e5             	cmp    %r12,%r13
  403af4:	75 e2                	jne    403ad8 <_ZN14MultiCameraPnPD1Ev+0x4e8>
  403af6:	48 8b bb a8 00 00 00 	mov    0xa8(%rbx),%rdi
  403afd:	48 85 ff             	test   %rdi,%rdi
  403b00:	74 05                	je     403b07 <_ZN14MultiCameraPnPD1Ev+0x517>
  403b02:	e8 f9 de ff ff       	callq  401a00 <_ZdlPv@plt>
  403b07:	4c 8b ab 98 00 00 00 	mov    0x98(%rbx),%r13
  403b0e:	4c 8b a3 90 00 00 00 	mov    0x90(%rbx),%r12
  403b15:	4d 39 e5             	cmp    %r12,%r13
  403b18:	0f 84 ef 02 00 00    	je     403e0d <_ZN14MultiCameraPnPD1Ev+0x81d>
  403b1e:	66 90                	xchg   %ax,%ax
  403b20:	49 8b 44 24 18       	mov    0x18(%r12),%rax
  403b25:	48 85 c0             	test   %rax,%rax
  403b28:	74 0a                	je     403b34 <_ZN14MultiCameraPnPD1Ev+0x544>
  403b2a:	f0 83 28 01          	lock subl $0x1,(%rax)
  403b2e:	0f 84 0c 02 00 00    	je     403d40 <_ZN14MultiCameraPnPD1Ev+0x750>
  403b34:	41 8b 54 24 04       	mov    0x4(%r12),%edx
  403b39:	49 c7 44 24 30 00 00 	movq   $0x0,0x30(%r12)
  403b40:	00 00 
  403b42:	49 c7 44 24 28 00 00 	movq   $0x0,0x28(%r12)
  403b49:	00 00 
  403b4b:	49 c7 44 24 20 00 00 	movq   $0x0,0x20(%r12)
  403b52:	00 00 
  403b54:	49 c7 44 24 10 00 00 	movq   $0x0,0x10(%r12)
  403b5b:	00 00 
  403b5d:	85 d2                	test   %edx,%edx
  403b5f:	7e 23                	jle    403b84 <_ZN14MultiCameraPnPD1Ev+0x594>
  403b61:	49 8b 54 24 40       	mov    0x40(%r12),%rdx
  403b66:	31 c0                	xor    %eax,%eax
  403b68:	0f 1f 84 00 00 00 00 	nopl   0x0(%rax,%rax,1)
  403b6f:	00 
  403b70:	c7 02 00 00 00 00    	movl   $0x0,(%rdx)
  403b76:	83 c0 01             	add    $0x1,%eax
  403b79:	48 83 c2 04          	add    $0x4,%rdx
  403b7d:	41 3b 44 24 04       	cmp    0x4(%r12),%eax
  403b82:	7c ec                	jl     403b70 <_ZN14MultiCameraPnPD1Ev+0x580>
  403b84:	49 8b 7c 24 48       	mov    0x48(%r12),%rdi
  403b89:	49 8d 44 24 50       	lea    0x50(%r12),%rax
  403b8e:	49 c7 44 24 18 00 00 	movq   $0x0,0x18(%r12)
  403b95:	00 00 
  403b97:	48 39 c7             	cmp    %rax,%rdi
  403b9a:	74 05                	je     403ba1 <_ZN14MultiCameraPnPD1Ev+0x5b1>
  403b9c:	e8 5f df ff ff       	callq  401b00 <_ZN2cv8fastFreeEPv@plt>
  403ba1:	49 83 c4 60          	add    $0x60,%r12
  403ba5:	4d 39 e5             	cmp    %r12,%r13
  403ba8:	0f 85 72 ff ff ff    	jne    403b20 <_ZN14MultiCameraPnPD1Ev+0x530>
  403bae:	48 8b bb 90 00 00 00 	mov    0x90(%rbx),%rdi
  403bb5:	48 85 ff             	test   %rdi,%rdi
  403bb8:	74 05                	je     403bbf <_ZN14MultiCameraPnPD1Ev+0x5cf>
  403bba:	e8 41 de ff ff       	callq  401a00 <_ZdlPv@plt>
  403bbf:	4c 8b ab 80 00 00 00 	mov    0x80(%rbx),%r13
  403bc6:	4c 8b 63 78          	mov    0x78(%rbx),%r12
  403bca:	4d 39 e5             	cmp    %r12,%r13
  403bcd:	0f 84 42 02 00 00    	je     403e15 <_ZN14MultiCameraPnPD1Ev+0x825>
  403bd3:	0f 1f 44 00 00       	nopl   0x0(%rax,%rax,1)
  403bd8:	49 8b 44 24 18       	mov    0x18(%r12),%rax
  403bdd:	48 85 c0             	test   %rax,%rax
  403be0:	74 0a                	je     403bec <_ZN14MultiCameraPnPD1Ev+0x5fc>
  403be2:	f0 83 28 01          	lock subl $0x1,(%rax)
  403be6:	0f 84 64 01 00 00    	je     403d50 <_ZN14MultiCameraPnPD1Ev+0x760>
  403bec:	41 8b 44 24 04       	mov    0x4(%r12),%eax
  403bf1:	49 c7 44 24 30 00 00 	movq   $0x0,0x30(%r12)
  403bf8:	00 00 
  403bfa:	49 c7 44 24 28 00 00 	movq   $0x0,0x28(%r12)
  403c01:	00 00 
  403c03:	49 c7 44 24 20 00 00 	movq   $0x0,0x20(%r12)
  403c0a:	00 00 
  403c0c:	49 c7 44 24 10 00 00 	movq   $0x0,0x10(%r12)
  403c13:	00 00 
  403c15:	85 c0                	test   %eax,%eax
  403c17:	7e 1b                	jle    403c34 <_ZN14MultiCameraPnPD1Ev+0x644>
  403c19:	49 8b 54 24 40       	mov    0x40(%r12),%rdx
  403c1e:	31 c0                	xor    %eax,%eax
  403c20:	c7 02 00 00 00 00    	movl   $0x0,(%rdx)
  403c26:	83 c0 01             	add    $0x1,%eax
  403c29:	48 83 c2 04          	add    $0x4,%rdx
  403c2d:	41 3b 44 24 04       	cmp    0x4(%r12),%eax
  403c32:	7c ec                	jl     403c20 <_ZN14MultiCameraPnPD1Ev+0x630>
  403c34:	49 8b 7c 24 48       	mov    0x48(%r12),%rdi
  403c39:	49 8d 44 24 50       	lea    0x50(%r12),%rax
  403c3e:	49 c7 44 24 18 00 00 	movq   $0x0,0x18(%r12)
  403c45:	00 00 
  403c47:	48 39 c7             	cmp    %rax,%rdi
  403c4a:	74 05                	je     403c51 <_ZN14MultiCameraPnPD1Ev+0x661>
  403c4c:	e8 af de ff ff       	callq  401b00 <_ZN2cv8fastFreeEPv@plt>
  403c51:	49 83 c4 60          	add    $0x60,%r12
  403c55:	4d 39 e5             	cmp    %r12,%r13
  403c58:	0f 85 7a ff ff ff    	jne    403bd8 <_ZN14MultiCameraPnPD1Ev+0x5e8>
  403c5e:	48 8b 7b 78          	mov    0x78(%rbx),%rdi
  403c62:	48 85 ff             	test   %rdi,%rdi
  403c65:	74 05                	je     403c6c <_ZN14MultiCameraPnPD1Ev+0x67c>
  403c67:	e8 94 dd ff ff       	callq  401a00 <_ZdlPv@plt>
  403c6c:	48 8b 73 58          	mov    0x58(%rbx),%rsi
  403c70:	48 8d 7b 48          	lea    0x48(%rbx),%rdi
  403c74:	e8 77 f8 ff ff       	callq  4034f0 <_ZNSt8_Rb_treeISt4pairIiiES0_IKS1_St6vectorIN2cv6DMatchESaIS5_EEESt10_Select1stIS8_ESt4lessIS1_ESaIS8_EE8_M_eraseEPSt13_Rb_tree_nodeIS8_E>
  403c79:	4c 8b 6b 38          	mov    0x38(%rbx),%r13
  403c7d:	4c 8b 63 30          	mov    0x30(%rbx),%r12
  403c81:	4d 39 e5             	cmp    %r12,%r13
  403c84:	0f 84 73 01 00 00    	je     403dfd <_ZN14MultiCameraPnPD1Ev+0x80d>
  403c8a:	66 0f 1f 44 00 00    	nopw   0x0(%rax,%rax,1)
  403c90:	49 8b 3c 24          	mov    (%r12),%rdi
  403c94:	48 85 ff             	test   %rdi,%rdi
  403c97:	74 05                	je     403c9e <_ZN14MultiCameraPnPD1Ev+0x6ae>
  403c99:	e8 62 dd ff ff       	callq  401a00 <_ZdlPv@plt>
  403c9e:	49 83 c4 18          	add    $0x18,%r12
  403ca2:	4d 39 e5             	cmp    %r12,%r13
  403ca5:	75 e9                	jne    403c90 <_ZN14MultiCameraPnPD1Ev+0x6a0>
  403ca7:	48 8b 7b 30          	mov    0x30(%rbx),%rdi
  403cab:	48 85 ff             	test   %rdi,%rdi
  403cae:	74 05                	je     403cb5 <_ZN14MultiCameraPnPD1Ev+0x6c5>
  403cb0:	e8 4b dd ff ff       	callq  401a00 <_ZdlPv@plt>
  403cb5:	4c 8b 6b 20          	mov    0x20(%rbx),%r13
  403cb9:	4c 8b 63 18          	mov    0x18(%rbx),%r12
  403cbd:	4d 39 e5             	cmp    %r12,%r13
  403cc0:	0f 84 3f 01 00 00    	je     403e05 <_ZN14MultiCameraPnPD1Ev+0x815>
  403cc6:	66 2e 0f 1f 84 00 00 	nopw   %cs:0x0(%rax,%rax,1)
  403ccd:	00 00 00 
  403cd0:	49 8b 3c 24          	mov    (%r12),%rdi
  403cd4:	48 85 ff             	test   %rdi,%rdi
  403cd7:	74 05                	je     403cde <_ZN14MultiCameraPnPD1Ev+0x6ee>
  403cd9:	e8 22 dd ff ff       	callq  401a00 <_ZdlPv@plt>
  403cde:	49 83 c4 18          	add    $0x18,%r12
  403ce2:	4d 39 e5             	cmp    %r12,%r13
  403ce5:	75 e9                	jne    403cd0 <_ZN14MultiCameraPnPD1Ev+0x6e0>
  403ce7:	48 8b 7b 18          	mov    0x18(%rbx),%rdi
  403ceb:	48 85 ff             	test   %rdi,%rdi
  403cee:	74 05                	je     403cf5 <_ZN14MultiCameraPnPD1Ev+0x705>
  403cf0:	e8 0b dd ff ff       	callq  401a00 <_ZdlPv@plt>
  403cf5:	4c 8b 6b 08          	mov    0x8(%rbx),%r13
  403cf9:	4c 8b 23             	mov    (%rbx),%r12
  403cfc:	4d 39 e5             	cmp    %r12,%r13
  403cff:	0f 84 e8 00 00 00    	je     403ded <_ZN14MultiCameraPnPD1Ev+0x7fd>
  403d05:	0f 1f 00             	nopl   (%rax)
  403d08:	49 8b 3c 24          	mov    (%r12),%rdi
  403d0c:	48 85 ff             	test   %rdi,%rdi
  403d0f:	74 05                	je     403d16 <_ZN14MultiCameraPnPD1Ev+0x726>
  403d11:	e8 ea dc ff ff       	callq  401a00 <_ZdlPv@plt>
  403d16:	49 83 c4 18          	add    $0x18,%r12
  403d1a:	4d 39 e5             	cmp    %r12,%r13
  403d1d:	75 e9                	jne    403d08 <_ZN14MultiCameraPnPD1Ev+0x718>
  403d1f:	48 8b 3b             	mov    (%rbx),%rdi
  403d22:	48 85 ff             	test   %rdi,%rdi
  403d25:	74 05                	je     403d2c <_ZN14MultiCameraPnPD1Ev+0x73c>
  403d27:	e8 d4 dc ff ff       	callq  401a00 <_ZdlPv@plt>
  403d2c:	48 83 c4 18          	add    $0x18,%rsp
  403d30:	5b                   	pop    %rbx
  403d31:	41 5c                	pop    %r12
  403d33:	41 5d                	pop    %r13
  403d35:	41 5e                	pop    %r14
  403d37:	41 5f                	pop    %r15
  403d39:	5d                   	pop    %rbp
  403d3a:	c3                   	retq   
  403d3b:	0f 1f 44 00 00       	nopl   0x0(%rax,%rax,1)
  403d40:	4c 89 e7             	mov    %r12,%rdi
  403d43:	e8 98 dc ff ff       	callq  4019e0 <_ZN2cv3Mat10deallocateEv@plt>
  403d48:	e9 e7 fd ff ff       	jmpq   403b34 <_ZN14MultiCameraPnPD1Ev+0x544>
  403d4d:	0f 1f 00             	nopl   (%rax)
  403d50:	4c 89 e7             	mov    %r12,%rdi
  403d53:	e8 88 dc ff ff       	callq  4019e0 <_ZN2cv3Mat10deallocateEv@plt>
  403d58:	e9 8f fe ff ff       	jmpq   403bec <_ZN14MultiCameraPnPD1Ev+0x5fc>
  403d5d:	48 8b bb 78 03 00 00 	mov    0x378(%rbx),%rdi
  403d64:	48 85 ff             	test   %rdi,%rdi
  403d67:	74 05                	je     403d6e <_ZN14MultiCameraPnPD1Ev+0x77e>
  403d69:	e8 92 dc ff ff       	callq  401a00 <_ZdlPv@plt>
  403d6e:	48 8b bb 80 03 00 00 	mov    0x380(%rbx),%rdi
  403d75:	e8 86 dd ff ff       	callq  401b00 <_ZN2cv8fastFreeEPv@plt>
  403d7a:	e9 35 f9 ff ff       	jmpq   4036b4 <_ZN14MultiCameraPnPD1Ev+0xc4>
  403d7f:	48 8d bb f0 00 00 00 	lea    0xf0(%rbx),%rdi
  403d86:	e8 55 dc ff ff       	callq  4019e0 <_ZN2cv3Mat10deallocateEv@plt>
  403d8b:	e9 9e fc ff ff       	jmpq   403a2e <_ZN14MultiCameraPnPD1Ev+0x43e>
  403d90:	48 8d bb 50 01 00 00 	lea    0x150(%rbx),%rdi
  403d97:	e8 44 dc ff ff       	callq  4019e0 <_ZN2cv3Mat10deallocateEv@plt>
  403d9c:	e9 fd fb ff ff       	jmpq   40399e <_ZN14MultiCameraPnPD1Ev+0x3ae>
  403da1:	48 8d bb b0 01 00 00 	lea    0x1b0(%rbx),%rdi
  403da8:	e8 33 dc ff ff       	callq  4019e0 <_ZN2cv3Mat10deallocateEv@plt>
  403dad:	e9 5c fb ff ff       	jmpq   40390e <_ZN14MultiCameraPnPD1Ev+0x31e>
  403db2:	48 8d bb 10 02 00 00 	lea    0x210(%rbx),%rdi
  403db9:	e8 22 dc ff ff       	callq  4019e0 <_ZN2cv3Mat10deallocateEv@plt>
  403dbe:	e9 bb fa ff ff       	jmpq   40387e <_ZN14MultiCameraPnPD1Ev+0x28e>
  403dc3:	48 8d bb 70 02 00 00 	lea    0x270(%rbx),%rdi
  403dca:	e8 11 dc ff ff       	callq  4019e0 <_ZN2cv3Mat10deallocateEv@plt>
  403dcf:	e9 12 fa ff ff       	jmpq   4037e6 <_ZN14MultiCameraPnPD1Ev+0x1f6>
  403dd4:	48 8d bb d0 02 00 00 	lea    0x2d0(%rbx),%rdi
  403ddb:	e8 00 dc ff ff       	callq  4019e0 <_ZN2cv3Mat10deallocateEv@plt>
  403de0:	e9 6f f9 ff ff       	jmpq   403754 <_ZN14MultiCameraPnPD1Ev+0x164>
  403de5:	4c 89 f7             	mov    %r14,%rdi
  403de8:	e9 47 f9 ff ff       	jmpq   403734 <_ZN14MultiCameraPnPD1Ev+0x144>
  403ded:	4c 89 ef             	mov    %r13,%rdi
  403df0:	e9 2d ff ff ff       	jmpq   403d22 <_ZN14MultiCameraPnPD1Ev+0x732>
  403df5:	4c 89 f7             	mov    %r14,%rdi
  403df8:	e9 97 f8 ff ff       	jmpq   403694 <_ZN14MultiCameraPnPD1Ev+0xa4>
  403dfd:	4c 89 ef             	mov    %r13,%rdi
  403e00:	e9 a6 fe ff ff       	jmpq   403cab <_ZN14MultiCameraPnPD1Ev+0x6bb>
  403e05:	4c 89 ef             	mov    %r13,%rdi
  403e08:	e9 de fe ff ff       	jmpq   403ceb <_ZN14MultiCameraPnPD1Ev+0x6fb>
  403e0d:	4c 89 ef             	mov    %r13,%rdi
  403e10:	e9 a0 fd ff ff       	jmpq   403bb5 <_ZN14MultiCameraPnPD1Ev+0x5c5>
  403e15:	4c 89 ef             	mov    %r13,%rdi
  403e18:	e9 45 fe ff ff       	jmpq   403c62 <_ZN14MultiCameraPnPD1Ev+0x672>
  403e1d:	49 89 c4             	mov    %rax,%r12
  403e20:	48 8d bb f0 00 00 00 	lea    0xf0(%rbx),%rdi
  403e27:	e8 44 f1 ff ff       	callq  402f70 <_ZN2cv3MatD1Ev>
  403e2c:	48 8b b3 d0 00 00 00 	mov    0xd0(%rbx),%rsi
  403e33:	48 8d bb c0 00 00 00 	lea    0xc0(%rbx),%rdi
  403e3a:	e8 11 f7 ff ff       	callq  403550 <_ZNSt8_Rb_treeIiSt4pairIKiN2cv4MatxIdLi3ELi4EEEESt10_Select1stIS5_ESt4lessIiESaIS5_EE8_M_eraseEPSt13_Rb_tree_nodeIS5_E>
  403e3f:	48 8d bb a8 00 00 00 	lea    0xa8(%rbx),%rdi
  403e46:	e8 85 ef ff ff       	callq  402dd0 <_ZNSt6vectorISsSaISsEED1Ev>
  403e4b:	48 8d bb 90 00 00 00 	lea    0x90(%rbx),%rdi
  403e52:	e8 19 f0 ff ff       	callq  402e70 <_ZNSt6vectorIN2cv3MatESaIS1_EED1Ev>
  403e57:	48 8d 7b 78          	lea    0x78(%rbx),%rdi
  403e5b:	e8 20 f2 ff ff       	callq  403080 <_ZNSt6vectorIN2cv4Mat_INS0_3VecIhLi3EEEEESaIS4_EED1Ev>
  403e60:	48 8b 73 58          	mov    0x58(%rbx),%rsi
  403e64:	48 8d 7b 48          	lea    0x48(%rbx),%rdi
  403e68:	e8 83 f6 ff ff       	callq  4034f0 <_ZNSt8_Rb_treeISt4pairIiiES0_IKS1_St6vectorIN2cv6DMatchESaIS5_EEESt10_Select1stIS8_ESt4lessIS1_ESaIS8_EE8_M_eraseEPSt13_Rb_tree_nodeIS8_E>
  403e6d:	48 8d 7b 30          	lea    0x30(%rbx),%rdi
  403e71:	e8 9a f1 ff ff       	callq  403010 <_ZNSt6vectorIS_IN2cv8KeyPointESaIS1_EESaIS3_EED1Ev>
  403e76:	48 8d 7b 18          	lea    0x18(%rbx),%rdi
  403e7a:	e8 91 f1 ff ff       	callq  403010 <_ZNSt6vectorIS_IN2cv8KeyPointESaIS1_EESaIS3_EED1Ev>
  403e7f:	48 89 df             	mov    %rbx,%rdi
  403e82:	e8 89 f1 ff ff       	callq  403010 <_ZNSt6vectorIS_IN2cv8KeyPointESaIS1_EESaIS3_EED1Ev>
  403e87:	4c 89 e7             	mov    %r12,%rdi
  403e8a:	e8 c1 db ff ff       	callq  401a50 <_Unwind_Resume@plt>
  403e8f:	49 89 c4             	mov    %rax,%r12
  403e92:	48 8d bb 50 01 00 00 	lea    0x150(%rbx),%rdi
  403e99:	e8 d2 f0 ff ff       	callq  402f70 <_ZN2cv3MatD1Ev>
  403e9e:	eb 80                	jmp    403e20 <_ZN14MultiCameraPnPD1Ev+0x830>
  403ea0:	b9 10 1b 40 00       	mov    $0x401b10,%ecx
  403ea5:	48 8d 57 10          	lea    0x10(%rdi),%rdx
  403ea9:	48 85 c9             	test   %rcx,%rcx
  403eac:	74 27                	je     403ed5 <_ZN14MultiCameraPnPD1Ev+0x8e5>
  403eae:	b8 ff ff ff ff       	mov    $0xffffffff,%eax
  403eb3:	f0 0f c1 02          	lock xadd %eax,(%rdx)
  403eb7:	85 c0                	test   %eax,%eax
  403eb9:	0f 8f 2e fc ff ff    	jg     403aed <_ZN14MultiCameraPnPD1Ev+0x4fd>
  403ebf:	48 8d 75 cf          	lea    -0x31(%rbp),%rsi
  403ec3:	e8 68 dc ff ff       	callq  401b30 <_ZNSs4_Rep10_M_destroyERKSaIcE@plt>
  403ec8:	e9 20 fc ff ff       	jmpq   403aed <_ZN14MultiCameraPnPD1Ev+0x4fd>
  403ecd:	49 89 c4             	mov    %rax,%r12
  403ed0:	e9 57 ff ff ff       	jmpq   403e2c <_ZN14MultiCameraPnPD1Ev+0x83c>
  403ed5:	8b 50 f8             	mov    -0x8(%rax),%edx
  403ed8:	8d 4a ff             	lea    -0x1(%rdx),%ecx
  403edb:	89 48 f8             	mov    %ecx,-0x8(%rax)
  403ede:	89 d0                	mov    %edx,%eax
  403ee0:	eb d5                	jmp    403eb7 <_ZN14MultiCameraPnPD1Ev+0x8c7>
  403ee2:	49 89 c4             	mov    %rax,%r12
  403ee5:	48 8d bb 70 02 00 00 	lea    0x270(%rbx),%rdi
  403eec:	e8 7f f0 ff ff       	callq  402f70 <_ZN2cv3MatD1Ev>
  403ef1:	48 8d bb 10 02 00 00 	lea    0x210(%rbx),%rdi
  403ef8:	e8 73 f0 ff ff       	callq  402f70 <_ZN2cv3MatD1Ev>
  403efd:	48 8d bb b0 01 00 00 	lea    0x1b0(%rbx),%rdi
  403f04:	e8 67 f0 ff ff       	callq  402f70 <_ZN2cv3MatD1Ev>
  403f09:	eb 87                	jmp    403e92 <_ZN14MultiCameraPnPD1Ev+0x8a2>
  403f0b:	48 8b 7b 78          	mov    0x78(%rbx),%rdi
  403f0f:	49 89 c4             	mov    %rax,%r12
  403f12:	48 85 ff             	test   %rdi,%rdi
  403f15:	0f 84 45 ff ff ff    	je     403e60 <_ZN14MultiCameraPnPD1Ev+0x870>
  403f1b:	e8 e0 da ff ff       	callq  401a00 <_ZdlPv@plt>
  403f20:	e9 3b ff ff ff       	jmpq   403e60 <_ZN14MultiCameraPnPD1Ev+0x870>
  403f25:	49 89 c4             	mov    %rax,%r12
  403f28:	eb d3                	jmp    403efd <_ZN14MultiCameraPnPD1Ev+0x90d>
  403f2a:	49 89 c4             	mov    %rax,%r12
  403f2d:	0f 1f 00             	nopl   (%rax)
  403f30:	eb bf                	jmp    403ef1 <_ZN14MultiCameraPnPD1Ev+0x901>
  403f32:	48 8b bb 60 03 00 00 	mov    0x360(%rbx),%rdi
  403f39:	49 89 c4             	mov    %rax,%r12
  403f3c:	48 85 ff             	test   %rdi,%rdi
  403f3f:	74 05                	je     403f46 <_ZN14MultiCameraPnPD1Ev+0x956>
  403f41:	e8 ba da ff ff       	callq  401a00 <_ZdlPv@plt>
  403f46:	48 8b bb 48 03 00 00 	mov    0x348(%rbx),%rdi
  403f4d:	48 85 ff             	test   %rdi,%rdi
  403f50:	74 05                	je     403f57 <_ZN14MultiCameraPnPD1Ev+0x967>
  403f52:	e8 a9 da ff ff       	callq  401a00 <_ZdlPv@plt>
  403f57:	48 8d bb 30 03 00 00 	lea    0x330(%rbx),%rdi
  403f5e:	e8 1d f2 ff ff       	callq  403180 <_ZNSt6vectorI10CloudPointSaIS0_EED1Ev>
  403f63:	48 8d bb d0 02 00 00 	lea    0x2d0(%rbx),%rdi
  403f6a:	e8 01 f0 ff ff       	callq  402f70 <_ZN2cv3MatD1Ev>
  403f6f:	e9 71 ff ff ff       	jmpq   403ee5 <_ZN14MultiCameraPnPD1Ev+0x8f5>
  403f74:	48 8b bb 90 00 00 00 	mov    0x90(%rbx),%rdi
  403f7b:	49 89 c4             	mov    %rax,%r12
  403f7e:	48 85 ff             	test   %rdi,%rdi
  403f81:	0f 84 d0 fe ff ff    	je     403e57 <_ZN14MultiCameraPnPD1Ev+0x867>
  403f87:	e8 74 da ff ff       	callq  401a00 <_ZdlPv@plt>
  403f8c:	e9 c6 fe ff ff       	jmpq   403e57 <_ZN14MultiCameraPnPD1Ev+0x867>
  403f91:	66 2e 0f 1f 84 00 00 	nopw   %cs:0x0(%rax,%rax,1)
  403f98:	00 00 00 
  403f9b:	0f 1f 44 00 00       	nopl   0x0(%rax,%rax,1)

0000000000403fa0 <_ZN2cv3PtrI14MultiCameraPnPE7releaseEv>:
  403fa0:	55                   	push   %rbp
  403fa1:	48 89 e5             	mov    %rsp,%rbp
  403fa4:	41 54                	push   %r12
  403fa6:	53                   	push   %rbx
  403fa7:	e8 44 db ff ff       	callq  401af0 <mcount@plt>
  403fac:	48 8b 47 08          	mov    0x8(%rdi),%rax
  403fb0:	48 89 fb             	mov    %rdi,%rbx
  403fb3:	48 85 c0             	test   %rax,%rax
  403fb6:	74 06                	je     403fbe <_ZN2cv3PtrI14MultiCameraPnPE7releaseEv+0x1e>
  403fb8:	f0 83 28 01          	lock subl $0x1,(%rax)
  403fbc:	74 1a                	je     403fd8 <_ZN2cv3PtrI14MultiCameraPnPE7releaseEv+0x38>
  403fbe:	48 c7 43 08 00 00 00 	movq   $0x0,0x8(%rbx)
  403fc5:	00 
  403fc6:	48 c7 03 00 00 00 00 	movq   $0x0,(%rbx)
  403fcd:	5b                   	pop    %rbx
  403fce:	41 5c                	pop    %r12
  403fd0:	5d                   	pop    %rbp
  403fd1:	c3                   	retq   
  403fd2:	66 0f 1f 44 00 00    	nopw   0x0(%rax,%rax,1)
  403fd8:	4c 8b 27             	mov    (%rdi),%r12
  403fdb:	4d 85 e4             	test   %r12,%r12
  403fde:	74 10                	je     403ff0 <_ZN2cv3PtrI14MultiCameraPnPE7releaseEv+0x50>
  403fe0:	4c 89 e7             	mov    %r12,%rdi
  403fe3:	e8 08 f6 ff ff       	callq  4035f0 <_ZN14MultiCameraPnPD1Ev>
  403fe8:	4c 89 e7             	mov    %r12,%rdi
  403feb:	e8 10 da ff ff       	callq  401a00 <_ZdlPv@plt>
  403ff0:	48 8b 7b 08          	mov    0x8(%rbx),%rdi
  403ff4:	e8 07 db ff ff       	callq  401b00 <_ZN2cv8fastFreeEPv@plt>
  403ff9:	eb c3                	jmp    403fbe <_ZN2cv3PtrI14MultiCameraPnPE7releaseEv+0x1e>
  403ffb:	0f 1f 44 00 00       	nopl   0x0(%rax,%rax,1)

0000000000404000 <__libc_csu_init>:
  404000:	41 57                	push   %r15
  404002:	41 89 ff             	mov    %edi,%r15d
  404005:	41 56                	push   %r14
  404007:	49 89 f6             	mov    %rsi,%r14
  40400a:	41 55                	push   %r13
  40400c:	49 89 d5             	mov    %rdx,%r13
  40400f:	41 54                	push   %r12
  404011:	4c 8d 25 a8 0d 20 00 	lea    0x200da8(%rip),%r12        # 604dc0 <__frame_dummy_init_array_entry>
  404018:	55                   	push   %rbp
  404019:	48 8d 2d b0 0d 20 00 	lea    0x200db0(%rip),%rbp        # 604dd0 <__init_array_end>
  404020:	53                   	push   %rbx
  404021:	4c 29 e5             	sub    %r12,%rbp
  404024:	31 db                	xor    %ebx,%ebx
  404026:	48 c1 fd 03          	sar    $0x3,%rbp
  40402a:	48 83 ec 08          	sub    $0x8,%rsp
  40402e:	e8 b5 d8 ff ff       	callq  4018e8 <_init>
  404033:	48 85 ed             	test   %rbp,%rbp
  404036:	74 1e                	je     404056 <__libc_csu_init+0x56>
  404038:	0f 1f 84 00 00 00 00 	nopl   0x0(%rax,%rax,1)
  40403f:	00 
  404040:	4c 89 ea             	mov    %r13,%rdx
  404043:	4c 89 f6             	mov    %r14,%rsi
  404046:	44 89 ff             	mov    %r15d,%edi
  404049:	41 ff 14 dc          	callq  *(%r12,%rbx,8)
  40404d:	48 83 c3 01          	add    $0x1,%rbx
  404051:	48 39 eb             	cmp    %rbp,%rbx
  404054:	75 ea                	jne    404040 <__libc_csu_init+0x40>
  404056:	48 83 c4 08          	add    $0x8,%rsp
  40405a:	5b                   	pop    %rbx
  40405b:	5d                   	pop    %rbp
  40405c:	41 5c                	pop    %r12
  40405e:	41 5d                	pop    %r13
  404060:	41 5e                	pop    %r14
  404062:	41 5f                	pop    %r15
  404064:	c3                   	retq   
  404065:	66 66 2e 0f 1f 84 00 	data32 nopw %cs:0x0(%rax,%rax,1)
  40406c:	00 00 00 00 

0000000000404070 <__libc_csu_fini>:
  404070:	f3 c3                	repz retq 
  404072:	66 2e 0f 1f 84 00 00 	nopw   %cs:0x0(%rax,%rax,1)
  404079:	00 00 00 
  40407c:	0f 1f 40 00          	nopl   0x0(%rax)

0000000000404080 <atexit>:
  404080:	48 8d 05 01 11 20 00 	lea    0x201101(%rip),%rax        # 605188 <__dso_handle>
  404087:	48 85 c0             	test   %rax,%rax
  40408a:	74 0a                	je     404096 <atexit+0x16>
  40408c:	48 8b 10             	mov    (%rax),%rdx
  40408f:	31 f6                	xor    %esi,%esi
  404091:	e9 4a da ff ff       	jmpq   401ae0 <__cxa_atexit@plt>
  404096:	31 d2                	xor    %edx,%edx
  404098:	eb f5                	jmp    40408f <atexit+0xf>

Disassembly of section .fini:

000000000040409c <_fini>:
  40409c:	48 83 ec 08          	sub    $0x8,%rsp
  4040a0:	48 83 c4 08          	add    $0x8,%rsp
  4040a4:	c3                   	retq   
